---
triple:          'arm64-apple-darwin'
binary-path:     bf
relocations:
  - { offsetInCU: 0x4C, offset: 0x4C, size: 0x8, addend: 0x0, symName: __ZN6Bfprog8op_namesE, symObjAddr: 0xA068, symBinAddr: 0x10000C2B8, symSize: 0x0 }
  - { offsetInCU: 0x10262, offset: 0x10262, size: 0x8, addend: 0x0, symName: __ZNSt3__17advanceB8ue170006INS_15__list_iteratorIN6Bfprog5TokenEPvEEllvEEvRT_T0_, symObjAddr: 0x3E0C, symBinAddr: 0x1000048D4, symSize: 0x38 }
  - { offsetInCU: 0x1048E, offset: 0x1048E, size: 0x8, addend: 0x0, symName: __ZNSt3__124__put_character_sequenceB8ue170006IcNS_11char_traitsIcEEEERNS_13basic_ostreamIT_T0_EES7_PKS4_m, symObjAddr: 0x58F0, symBinAddr: 0x1000063B8, symSize: 0x1EC }
  - { offsetInCU: 0x11ECB, offset: 0x11ECB, size: 0x8, addend: 0x0, symName: __ZNSt3__1lsB8ue170006INS_11char_traitsIcEEEERNS_13basic_ostreamIcT_EES6_PKc, symObjAddr: 0x430, symBinAddr: 0x100000EF8, symSize: 0x48 }
  - { offsetInCU: 0x11F11, offset: 0x11F11, size: 0x8, addend: 0x0, symName: __ZNSt3__1lsB8ue170006INS_11char_traitsIcEEEERNS_13basic_ostreamIcT_EES6_c, symObjAddr: 0x478, symBinAddr: 0x100000F40, symSize: 0x34 }
  - { offsetInCU: 0x1268E, offset: 0x1268E, size: 0x8, addend: 0x0, symName: __ZNSt3__14prevB8ue170006INS_15__list_iteratorIN6Bfprog5TokenEPvEEEENS_9enable_ifIXsr29__has_input_iterator_categoryIT_EE5valueES7_E4typeES7_NS_15iterator_traitsIS7_E15difference_typeE, symObjAddr: 0x141C, symBinAddr: 0x100001EE4, symSize: 0x44 }
  - { offsetInCU: 0x126D1, offset: 0x126D1, size: 0x8, addend: 0x0, symName: __ZNSt3__1rsB8ue170006IcNS_11char_traitsIcEENS_9allocatorIcEEEERNS_13basic_istreamIT_T0_EES9_RNS_12basic_stringIS6_S7_T1_EE, symObjAddr: 0x1754, symBinAddr: 0x10000221C, symSize: 0x30C }
  - { offsetInCU: 0x1279E, offset: 0x1279E, size: 0x8, addend: 0x0, symName: __ZNSt3__1neB8ue170006ERKNS_15__list_iteratorIN6Bfprog5TokenEPvEES6_, symObjAddr: 0x1C34, symBinAddr: 0x1000026FC, symSize: 0x34 }
  - { offsetInCU: 0x127DB, offset: 0x127DB, size: 0x8, addend: 0x0, symName: __ZNSt3__14endlB8ue170006IcNS_11char_traitsIcEEEERNS_13basic_ostreamIT_T0_EES7_, symObjAddr: 0x1CF0, symBinAddr: 0x1000027B8, symSize: 0x58 }
  - { offsetInCU: 0x1281B, offset: 0x1281B, size: 0x8, addend: 0x0, symName: __ZNSt3__1neB8ue170006ERKNS_16__deque_iteratorINS_15__list_iteratorIN6Bfprog5TokenEPvEEPS5_RS5_PS6_lLl512EEESB_, symObjAddr: 0x29C8, symBinAddr: 0x100003490, symSize: 0x34 }
  - { offsetInCU: 0x12858, offset: 0x12858, size: 0x8, addend: 0x0, symName: __ZNSt3__1eqB8ue170006ERKNS_16__deque_iteratorINS_15__list_iteratorIN6Bfprog5TokenEPvEEPS5_RS5_PS6_lLl512EEESB_, symObjAddr: 0x2D20, symBinAddr: 0x1000037E8, symSize: 0x30 }
  - { offsetInCU: 0x12895, offset: 0x12895, size: 0x8, addend: 0x0, symName: __ZNSt3__112__to_addressB8ue170006INS_15__list_iteratorIN6Bfprog5TokenEPvEEEEPT_S7_, symObjAddr: 0x33B0, symBinAddr: 0x100003E78, symSize: 0x14 }
  - { offsetInCU: 0x128CA, offset: 0x128CA, size: 0x8, addend: 0x0, symName: __ZNSt3__119__libcpp_deallocateB8ue170006EPvmm, symObjAddr: 0x351C, symBinAddr: 0x100003FE4, symSize: 0x60 }
  - { offsetInCU: 0x1292F, offset: 0x1292F, size: 0x8, addend: 0x0, symName: __ZNSt3__124__is_overaligned_for_newB8ue170006Em, symObjAddr: 0x357C, symBinAddr: 0x100004044, symSize: 0x20 }
  - { offsetInCU: 0x1295D, offset: 0x1295D, size: 0x8, addend: 0x0, symName: __ZNSt3__127__do_deallocate_handle_sizeB8ue170006IJSt11align_val_tEEEvPvmDpT_, symObjAddr: 0x359C, symBinAddr: 0x100004064, symSize: 0x30 }
  - { offsetInCU: 0x129B0, offset: 0x129B0, size: 0x8, addend: 0x0, symName: __ZNSt3__127__do_deallocate_handle_sizeB8ue170006IJEEEvPvmDpT_, symObjAddr: 0x35CC, symBinAddr: 0x100004094, symSize: 0x28 }
  - { offsetInCU: 0x129EE, offset: 0x129EE, size: 0x8, addend: 0x0, symName: __ZNSt3__124__libcpp_operator_deleteB8ue170006IJPvSt11align_val_tEEEvDpT_, symObjAddr: 0x35F4, symBinAddr: 0x1000040BC, symSize: 0x2C }
  - { offsetInCU: 0x12A37, offset: 0x12A37, size: 0x8, addend: 0x0, symName: __ZNSt3__124__libcpp_operator_deleteB8ue170006IJPvEEEvDpT_, symObjAddr: 0x3620, symBinAddr: 0x1000040E8, symSize: 0x24 }
  - { offsetInCU: 0x12A6C, offset: 0x12A6C, size: 0x8, addend: 0x0, symName: __ZNSt3__112__to_addressB8ue170006IPNS_15__list_iteratorIN6Bfprog5TokenEPvEEEEPT_S8_, symObjAddr: 0x38A4, symBinAddr: 0x10000436C, symSize: 0x14 }
  - { offsetInCU: 0x12AD4, offset: 0x12AD4, size: 0x8, addend: 0x0, symName: __ZNSt3__121__convert_to_integralB8ue170006El, symObjAddr: 0x3E44, symBinAddr: 0x10000490C, symSize: 0x14 }
  - { offsetInCU: 0x12B00, offset: 0x12B00, size: 0x8, addend: 0x0, symName: __ZNSt3__19__advanceB8ue170006INS_15__list_iteratorIN6Bfprog5TokenEPvEEEEvRT_NS_15iterator_traitsIS6_E15difference_typeENS_26bidirectional_iterator_tagE, symObjAddr: 0x3E58, symBinAddr: 0x100004920, symSize: 0xA4 }
  - { offsetInCU: 0x12B49, offset: 0x12B49, size: 0x8, addend: 0x0, symName: __ZNSt3__112__to_addressB8ue170006IiEEPT_S2_, symObjAddr: 0x4B28, symBinAddr: 0x1000055F0, symSize: 0x14 }
  - { offsetInCU: 0x12B7E, offset: 0x12B7E, size: 0x8, addend: 0x0, symName: __ZNSt3__122__make_exception_guardB8ue170006INS_6vectorIiNS_9allocatorIiEEE16__destroy_vectorEEENS_28__exception_guard_exceptionsIT_EES7_, symObjAddr: 0x4D6C, symBinAddr: 0x100005834, symSize: 0x40 }
  - { offsetInCU: 0x12BB3, offset: 0x12BB3, size: 0x8, addend: 0x0, symName: __ZNSt3__119__allocate_at_leastB8ue170006INS_9allocatorIiEEEENS_19__allocation_resultINS_16allocator_traitsIT_E7pointerEEERS5_m, symObjAddr: 0x503C, symBinAddr: 0x100005B04, symSize: 0x40 }
  - { offsetInCU: 0x12BF6, offset: 0x12BF6, size: 0x8, addend: 0x0, symName: __ZNSt3__13minB8ue170006ImEERKT_S3_S3_, symObjAddr: 0x5150, symBinAddr: 0x100005C18, symSize: 0x2C }
  - { offsetInCU: 0x12E23, offset: 0x12E23, size: 0x8, addend: 0x0, symName: __ZNSt3__13minB8ue170006ImNS_6__lessIvvEEEERKT_S5_S5_T0_, symObjAddr: 0x51DC, symBinAddr: 0x100005CA4, symSize: 0x54 }
  - { offsetInCU: 0x12EC2, offset: 0x12EC2, size: 0x8, addend: 0x0, symName: __ZNSt3__120__throw_length_errorB8ue170006EPKc, symObjAddr: 0x52B8, symBinAddr: 0x100005D80, symSize: 0x64 }
  - { offsetInCU: 0x12EEC, offset: 0x12EEC, size: 0x8, addend: 0x0, symName: __ZNSt3__117__libcpp_allocateB8ue170006Emm, symObjAddr: 0x5428, symBinAddr: 0x100005EF0, symSize: 0x60 }
  - { offsetInCU: 0x12F46, offset: 0x12F46, size: 0x8, addend: 0x0, symName: __ZNSt3__121__libcpp_operator_newB8ue170006IJmSt11align_val_tEEEPvDpT_, symObjAddr: 0x5488, symBinAddr: 0x100005F50, symSize: 0x2C }
  - { offsetInCU: 0x12F93, offset: 0x12F93, size: 0x8, addend: 0x0, symName: __ZNSt3__121__libcpp_operator_newB8ue170006IJmEEEPvDpT_, symObjAddr: 0x54B4, symBinAddr: 0x100005F7C, symSize: 0x24 }
  - { offsetInCU: 0x12FCC, offset: 0x12FCC, size: 0x8, addend: 0x0, symName: __ZNSt3__116__pad_and_outputB8ue170006IcNS_11char_traitsIcEEEENS_19ostreambuf_iteratorIT_T0_EES6_PKS4_S8_S8_RNS_8ios_baseES4_, symObjAddr: 0x5AF8, symBinAddr: 0x1000065C0, symSize: 0x240 }
  - { offsetInCU: 0x1309B, offset: 0x1309B, size: 0x8, addend: 0x0, symName: __ZNSt3__112__to_addressB8ue170006IcEEPT_S2_, symObjAddr: 0x5F68, symBinAddr: 0x100006A30, symSize: 0x14 }
  - { offsetInCU: 0x13103, offset: 0x13103, size: 0x8, addend: 0x0, symName: __ZNSt3__19use_facetB8ue170006INS_5ctypeIcEEEERKT_RKNS_6localeE, symObjAddr: 0x61E8, symBinAddr: 0x100006CB0, symSize: 0x2C }
  - { offsetInCU: 0x134E1, offset: 0x134E1, size: 0x8, addend: 0x0, symName: __ZNSt3__118__constexpr_strlenB8ue170006EPKc, symObjAddr: 0x62B4, symBinAddr: 0x100006D7C, symSize: 0x24 }
  - { offsetInCU: 0x1352B, offset: 0x1352B, size: 0x8, addend: 0x0, symName: __ZNSt3__13maxB8ue170006ImEERKT_S3_S3_, symObjAddr: 0x77B0, symBinAddr: 0x100008278, symSize: 0x2C }
  - { offsetInCU: 0x139C7, offset: 0x139C7, size: 0x8, addend: 0x0, symName: __ZNSt3__14swapB8ue170006IPPNS_15__list_iteratorIN6Bfprog5TokenEPvEEEENS_9enable_ifIXaasr21is_move_constructibleIT_EE5valuesr18is_move_assignableIS9_EE5valueEvE4typeERS9_SC_, symObjAddr: 0x7DC0, symBinAddr: 0x100008888, symSize: 0x3C }
  - { offsetInCU: 0x13A18, offset: 0x13A18, size: 0x8, addend: 0x0, symName: __ZNSt3__14moveB8ue170006IPPNS_15__list_iteratorIN6Bfprog5TokenEPvEES7_EET0_T_S9_S8_, symObjAddr: 0x7EA4, symBinAddr: 0x10000896C, symSize: 0x40 }
  - { offsetInCU: 0x13A8E, offset: 0x13A8E, size: 0x8, addend: 0x0, symName: __ZNSt3__16__moveB8ue170006INS_17_ClassicAlgPolicyEPPNS_15__list_iteratorIN6Bfprog5TokenEPvEES8_S8_EENS_4pairIT0_T2_EESA_T1_SB_, symObjAddr: 0x7FAC, symBinAddr: 0x100008A74, symSize: 0x44 }
  - { offsetInCU: 0x13AFA, offset: 0x13AFA, size: 0x8, addend: 0x0, symName: __ZNSt3__123__dispatch_copy_or_moveB8ue170006INS_17_ClassicAlgPolicyENS_11__move_loopIS1_EENS_14__move_trivialEPPNS_15__list_iteratorIN6Bfprog5TokenEPvEESB_SB_EENS_4pairIT2_T4_EESD_T3_SE_, symObjAddr: 0x7FF0, symBinAddr: 0x100008AB8, symSize: 0x44 }
  - { offsetInCU: 0x13B78, offset: 0x13B78, size: 0x8, addend: 0x0, symName: __ZNSt3__121__unwrap_and_dispatchB8ue170006INS_10__overloadINS_11__move_loopINS_17_ClassicAlgPolicyEEENS_14__move_trivialEEEPPNS_15__list_iteratorIN6Bfprog5TokenEPvEESD_SD_Li0EEENS_4pairIT0_T2_EESF_T1_SG_, symObjAddr: 0x8034, symBinAddr: 0x100008AFC, symSize: 0xB4 }
  - { offsetInCU: 0x13C06, offset: 0x13C06, size: 0x8, addend: 0x0, symName: __ZNSt3__114__unwrap_rangeB8ue170006IPPNS_15__list_iteratorIN6Bfprog5TokenEPvEES7_EENS_4pairIT0_S9_EET_SB_, symObjAddr: 0x80E8, symBinAddr: 0x100008BB0, symSize: 0x60 }
  - { offsetInCU: 0x13DCA, offset: 0x13DCA, size: 0x8, addend: 0x0, symName: __ZNSt3__113__unwrap_iterB8ue170006IPPNS_15__list_iteratorIN6Bfprog5TokenEPvEENS_18__unwrap_iter_implIS7_Lb1EEELi0EEEDTclsrT0_8__unwrapclsr3stdE7declvalIT_EEEESB_, symObjAddr: 0x8190, symBinAddr: 0x100008C58, symSize: 0x24 }
  - { offsetInCU: 0x13E0E, offset: 0x13E0E, size: 0x8, addend: 0x0, symName: __ZNSt3__19make_pairB8ue170006IPPNS_15__list_iteratorIN6Bfprog5TokenEPvEES7_EENS_4pairINS_18__unwrap_ref_decayIT_E4typeENS9_IT0_E4typeEEEOSA_OSD_, symObjAddr: 0x81B4, symBinAddr: 0x100008C7C, symSize: 0x38 }
  - { offsetInCU: 0x13E5D, offset: 0x13E5D, size: 0x8, addend: 0x0, symName: __ZNSt3__114__rewrap_rangeB8ue170006IPPNS_15__list_iteratorIN6Bfprog5TokenEPvEES7_EET_S8_T0_, symObjAddr: 0x81EC, symBinAddr: 0x100008CB4, symSize: 0x2C }
  - { offsetInCU: 0x13EA9, offset: 0x13EA9, size: 0x8, addend: 0x0, symName: __ZNSt3__113__rewrap_iterB8ue170006IPPNS_15__list_iteratorIN6Bfprog5TokenEPvEES7_NS_18__unwrap_iter_implIS7_Lb1EEEEET_SA_T0_, symObjAddr: 0x8218, symBinAddr: 0x100008CE0, symSize: 0x3C }
  - { offsetInCU: 0x13EFE, offset: 0x13EFE, size: 0x8, addend: 0x0, symName: __ZNSt3__119__copy_trivial_implB8ue170006IPNS_15__list_iteratorIN6Bfprog5TokenEPvEES6_EENS_4pairIPT_PT0_EES9_S9_SB_, symObjAddr: 0x8254, symBinAddr: 0x100008D1C, symSize: 0x80 }
  - { offsetInCU: 0x13F66, offset: 0x13F66, size: 0x8, addend: 0x0, symName: __ZNSt3__119__constexpr_memmoveB8ue170006IPNS_15__list_iteratorIN6Bfprog5TokenEPvEES6_Li0EEEPT_S8_PT0_NS_15__element_countE, symObjAddr: 0x82D4, symBinAddr: 0x100008D9C, symSize: 0x64 }
  - { offsetInCU: 0x13FD4, offset: 0x13FD4, size: 0x8, addend: 0x0, symName: __ZNSt3__19make_pairB8ue170006IRPPNS_15__list_iteratorIN6Bfprog5TokenEPvEES7_EENS_4pairINS_18__unwrap_ref_decayIT_E4typeENSA_IT0_E4typeEEEOSB_OSE_, symObjAddr: 0x8338, symBinAddr: 0x100008E00, symSize: 0x38 }
  - { offsetInCU: 0x14076, offset: 0x14076, size: 0x8, addend: 0x0, symName: __ZNSt3__18distanceB8ue170006INS_13move_iteratorIPPNS_15__list_iteratorIN6Bfprog5TokenEPvEEEEEENS_15iterator_traitsIT_E15difference_typeESB_SB_, symObjAddr: 0x85A0, symBinAddr: 0x100009068, symSize: 0x3C }
  - { offsetInCU: 0x140B9, offset: 0x140B9, size: 0x8, addend: 0x0, symName: __ZNSt3__110__distanceB8ue170006INS_13move_iteratorIPPNS_15__list_iteratorIN6Bfprog5TokenEPvEEEEEENS_15iterator_traitsIT_E15difference_typeESB_SB_NS_26random_access_iterator_tagE, symObjAddr: 0x87A4, symBinAddr: 0x10000926C, symSize: 0x30 }
  - { offsetInCU: 0x14106, offset: 0x14106, size: 0x8, addend: 0x0, symName: __ZNSt3__1miB8ue170006IPPNS_15__list_iteratorIN6Bfprog5TokenEPvEES7_EEDTmicldtfp_4baseEcldtfp0_4baseEERKNS_13move_iteratorIT_EERKNS9_IT0_EE, symObjAddr: 0x87D4, symBinAddr: 0x10000929C, symSize: 0x48 }
  - { offsetInCU: 0x14155, offset: 0x14155, size: 0x8, addend: 0x0, symName: __ZNSt3__113move_backwardB8ue170006IPPNS_15__list_iteratorIN6Bfprog5TokenEPvEES7_EET0_T_S9_S8_, symObjAddr: 0x890C, symBinAddr: 0x1000093D4, symSize: 0x40 }
  - { offsetInCU: 0x141AF, offset: 0x141AF, size: 0x8, addend: 0x0, symName: __ZNSt3__115__move_backwardB8ue170006INS_17_ClassicAlgPolicyEPPNS_15__list_iteratorIN6Bfprog5TokenEPvEES8_S8_EENS_4pairIT0_T2_EESA_T1_SB_, symObjAddr: 0x894C, symBinAddr: 0x100009414, symSize: 0x44 }
  - { offsetInCU: 0x1421B, offset: 0x1421B, size: 0x8, addend: 0x0, symName: __ZNSt3__123__dispatch_copy_or_moveB8ue170006INS_17_ClassicAlgPolicyENS_20__move_backward_loopIS1_EENS_23__move_backward_trivialEPPNS_15__list_iteratorIN6Bfprog5TokenEPvEESB_SB_EENS_4pairIT2_T4_EESD_T3_SE_, symObjAddr: 0x8990, symBinAddr: 0x100009458, symSize: 0x44 }
  - { offsetInCU: 0x14299, offset: 0x14299, size: 0x8, addend: 0x0, symName: __ZNSt3__121__unwrap_and_dispatchB8ue170006INS_10__overloadINS_20__move_backward_loopINS_17_ClassicAlgPolicyEEENS_23__move_backward_trivialEEEPPNS_15__list_iteratorIN6Bfprog5TokenEPvEESD_SD_Li0EEENS_4pairIT0_T2_EESF_T1_SG_, symObjAddr: 0x89D4, symBinAddr: 0x10000949C, symSize: 0xB4 }
  - { offsetInCU: 0x1436D, offset: 0x1436D, size: 0x8, addend: 0x0, symName: __ZNSt3__128__copy_backward_trivial_implB8ue170006IPNS_15__list_iteratorIN6Bfprog5TokenEPvEES6_EENS_4pairIPT_PT0_EES9_S9_SB_, symObjAddr: 0x8AD0, symBinAddr: 0x100009598, symSize: 0x90 }
  - { offsetInCU: 0x143D5, offset: 0x143D5, size: 0x8, addend: 0x0, symName: __ZNSt3__19make_pairB8ue170006IRPPNS_15__list_iteratorIN6Bfprog5TokenEPvEES8_EENS_4pairINS_18__unwrap_ref_decayIT_E4typeENSA_IT0_E4typeEEEOSB_OSE_, symObjAddr: 0x8B60, symBinAddr: 0x100009628, symSize: 0x38 }
  - { offsetInCU: 0x14424, offset: 0x14424, size: 0x8, addend: 0x0, symName: __ZNSt3__13maxB8ue170006ImNS_6__lessIvvEEEERKT_S5_S5_T0_, symObjAddr: 0x8C08, symBinAddr: 0x1000096D0, symSize: 0x54 }
  - { offsetInCU: 0x1447E, offset: 0x1447E, size: 0x8, addend: 0x0, symName: __ZNSt3__119__allocate_at_leastB8ue170006INS_9allocatorIPNS_15__list_iteratorIN6Bfprog5TokenEPvEEEEEENS_19__allocation_resultINS_16allocator_traitsIT_E7pointerEEERSB_m, symObjAddr: 0x8D6C, symBinAddr: 0x100009834, symSize: 0x40 }
  - { offsetInCU: 0x146AD, offset: 0x146AD, size: 0x8, addend: 0x0, symName: __ZNSt3__1eqB8ue170006ERKNS_15__list_iteratorIN6Bfprog5TokenEPvEES6_, symObjAddr: 0x9C28, symBinAddr: 0x10000A6F0, symSize: 0x30 }
  - { offsetInCU: 0x14CC4, offset: 0x14CC4, size: 0x8, addend: 0x0, symName: __ZSt28__throw_bad_array_new_lengthB8ue170006v, symObjAddr: 0x53F4, symBinAddr: 0x100005EBC, symSize: 0x34 }
  - { offsetInCU: 0x15E04, offset: 0x15E04, size: 0x8, addend: 0x0, symName: __ZN6Bfprog12op_functionsE, symObjAddr: 0xA1C0, symBinAddr: 0x100010000, symSize: 0x0 }
  - { offsetInCU: 0x15E17, offset: 0x15E17, size: 0x8, addend: 0x0, symName: __ZN6Bfprog13op_genc_funcsE, symObjAddr: 0xA200, symBinAddr: 0x100010040, symSize: 0x0 }
  - { offsetInCU: 0x18061, offset: 0x18061, size: 0x8, addend: 0x0, symName: __ZN6BfprogC2Ej, symObjAddr: 0x0, symBinAddr: 0x100000AC8, symSize: 0xB8 }
  - { offsetInCU: 0x1809B, offset: 0x1809B, size: 0x8, addend: 0x0, symName: __ZNSt3__16vectorIiNS_9allocatorIiEEEC1B8ue170006Ev, symObjAddr: 0xB8, symBinAddr: 0x100000B80, symSize: 0x2C }
  - { offsetInCU: 0x180C5, offset: 0x180C5, size: 0x8, addend: 0x0, symName: __ZNSt3__14listIN6Bfprog5TokenENS_9allocatorIS2_EEEC1B8ue170006Ev, symObjAddr: 0xE4, symBinAddr: 0x100000BAC, symSize: 0x2C }
  - { offsetInCU: 0x180EF, offset: 0x180EF, size: 0x8, addend: 0x0, symName: __ZNSt3__15stackINS_15__list_iteratorIN6Bfprog5TokenEPvEENS_5dequeIS5_NS_9allocatorIS5_EEEEEC1B8ue170006Ev, symObjAddr: 0x110, symBinAddr: 0x100000BD8, symSize: 0x2C }
  - { offsetInCU: 0x18119, offset: 0x18119, size: 0x8, addend: 0x0, symName: __ZNSt3__16vectorIiNS_9allocatorIiEEEC1Em, symObjAddr: 0x13C, symBinAddr: 0x100000C04, symSize: 0x34 }
  - { offsetInCU: 0x18154, offset: 0x18154, size: 0x8, addend: 0x0, symName: __ZNSt3__16vectorIiNS_9allocatorIiEEEaSB8ue170006EOS3_, symObjAddr: 0x170, symBinAddr: 0x100000C38, symSize: 0x34 }
  - { offsetInCU: 0x1818B, offset: 0x1818B, size: 0x8, addend: 0x0, symName: __ZNSt3__16vectorIiNS_9allocatorIiEEED1B8ue170006Ev, symObjAddr: 0x1A4, symBinAddr: 0x100000C6C, symSize: 0x2C }
  - { offsetInCU: 0x181B5, offset: 0x181B5, size: 0x8, addend: 0x0, symName: __ZNSt3__15stackINS_15__list_iteratorIN6Bfprog5TokenEPvEENS_5dequeIS5_NS_9allocatorIS5_EEEEED1Ev, symObjAddr: 0x1D0, symBinAddr: 0x100000C98, symSize: 0x2C }
  - { offsetInCU: 0x181E1, offset: 0x181E1, size: 0x8, addend: 0x0, symName: __ZNSt3__14listIN6Bfprog5TokenENS_9allocatorIS2_EEED1Ev, symObjAddr: 0x1FC, symBinAddr: 0x100000CC4, symSize: 0x2C }
  - { offsetInCU: 0x1820E, offset: 0x1820E, size: 0x8, addend: 0x0, symName: __ZN6BfprogC1Ej, symObjAddr: 0x228, symBinAddr: 0x100000CF0, symSize: 0x34 }
  - { offsetInCU: 0x18248, offset: 0x18248, size: 0x8, addend: 0x0, symName: __ZN6BfprogD2Ev, symObjAddr: 0x25C, symBinAddr: 0x100000D24, symSize: 0x44 }
  - { offsetInCU: 0x18274, offset: 0x18274, size: 0x8, addend: 0x0, symName: __ZN6BfprogD1Ev, symObjAddr: 0x2A0, symBinAddr: 0x100000D68, symSize: 0x2C }
  - { offsetInCU: 0x1829F, offset: 0x1829F, size: 0x8, addend: 0x0, symName: __ZlsRNSt3__113basic_ostreamIcNS_11char_traitsIcEEEERKN6Bfprog5TokenE, symObjAddr: 0x2CC, symBinAddr: 0x100000D94, symSize: 0x164 }
  - { offsetInCU: 0x182E8, offset: 0x182E8, size: 0x8, addend: 0x0, symName: __ZNKSt3__115__list_iteratorIN6Bfprog5TokenEPvEptB8ue170006Ev, symObjAddr: 0x4AC, symBinAddr: 0x100000F74, symSize: 0x30 }
  - { offsetInCU: 0x1830E, offset: 0x1830E, size: 0x8, addend: 0x0, symName: __ZN6Bfprog14get_token_listEv, symObjAddr: 0x4DC, symBinAddr: 0x100000FA4, symSize: 0x18 }
  - { offsetInCU: 0x18336, offset: 0x18336, size: 0x8, addend: 0x0, symName: __ZN6Bfprog15get_memory_sizeEv, symObjAddr: 0x4F4, symBinAddr: 0x100000FBC, symSize: 0x18 }
  - { offsetInCU: 0x1835E, offset: 0x1835E, size: 0x8, addend: 0x0, symName: __ZN6Bfprog12parse_stringEPKc, symObjAddr: 0x50C, symBinAddr: 0x100000FD4, symSize: 0x1A0 }
  - { offsetInCU: 0x183C4, offset: 0x183C4, size: 0x8, addend: 0x0, symName: __ZN6Bfprog10parse_charEc, symObjAddr: 0x6AC, symBinAddr: 0x100001174, symSize: 0x7D8 }
  - { offsetInCU: 0x183FB, offset: 0x183FB, size: 0x8, addend: 0x0, symName: __ZNKSt3__15stackINS_15__list_iteratorIN6Bfprog5TokenEPvEENS_5dequeIS5_NS_9allocatorIS5_EEEEE5emptyB8ue170006Ev, symObjAddr: 0xE84, symBinAddr: 0x10000194C, symSize: 0x28 }
  - { offsetInCU: 0x18421, offset: 0x18421, size: 0x8, addend: 0x0, symName: __ZN6Bfprog10parse_fileEPKc, symObjAddr: 0xEAC, symBinAddr: 0x100001974, symSize: 0x278 }
  - { offsetInCU: 0x1851A, offset: 0x1851A, size: 0x8, addend: 0x0, symName: __ZNSt3__114basic_ifstreamIcNS_11char_traitsIcEEEC1EPKcj, symObjAddr: 0x1124, symBinAddr: 0x100001BEC, symSize: 0x16C }
  - { offsetInCU: 0x18564, offset: 0x18564, size: 0x8, addend: 0x0, symName: __ZNKSt3__114basic_ifstreamIcNS_11char_traitsIcEEE7is_openEv, symObjAddr: 0x1290, symBinAddr: 0x100001D58, symSize: 0x2C }
  - { offsetInCU: 0x18591, offset: 0x18591, size: 0x8, addend: 0x0, symName: __ZNSt3__114basic_ifstreamIcNS_11char_traitsIcEEED1Ev, symObjAddr: 0x12BC, symBinAddr: 0x100001D84, symSize: 0x40 }
  - { offsetInCU: 0x185BE, offset: 0x185BE, size: 0x8, addend: 0x0, symName: __ZNSt3__14listIN6Bfprog5TokenENS_9allocatorIS2_EEE9push_backEOS2_, symObjAddr: 0x12FC, symBinAddr: 0x100001DC4, symSize: 0xF4 }
  - { offsetInCU: 0x18613, offset: 0x18613, size: 0x8, addend: 0x0, symName: __ZNSt3__15stackINS_15__list_iteratorIN6Bfprog5TokenEPvEENS_5dequeIS5_NS_9allocatorIS5_EEEEE4pushB8ue170006EOS5_, symObjAddr: 0x13F0, symBinAddr: 0x100001EB8, symSize: 0x2C }
  - { offsetInCU: 0x18648, offset: 0x18648, size: 0x8, addend: 0x0, symName: __ZNSt3__14listIN6Bfprog5TokenENS_9allocatorIS2_EEE3endB8ue170006Ev, symObjAddr: 0x1460, symBinAddr: 0x100001F28, symSize: 0x2C }
  - { offsetInCU: 0x1866E, offset: 0x1866E, size: 0x8, addend: 0x0, symName: __ZNSt3__15stackINS_15__list_iteratorIN6Bfprog5TokenEPvEENS_5dequeIS5_NS_9allocatorIS5_EEEEE3topB8ue170006Ev, symObjAddr: 0x148C, symBinAddr: 0x100001F54, symSize: 0x24 }
  - { offsetInCU: 0x18694, offset: 0x18694, size: 0x8, addend: 0x0, symName: __ZNSt3__14listIN6Bfprog5TokenENS_9allocatorIS2_EEE4backB8ue170006Ev, symObjAddr: 0x14B0, symBinAddr: 0x100001F78, symSize: 0x2C }
  - { offsetInCU: 0x186BA, offset: 0x186BA, size: 0x8, addend: 0x0, symName: __ZNSt3__15stackINS_15__list_iteratorIN6Bfprog5TokenEPvEENS_5dequeIS5_NS_9allocatorIS5_EEEEE3popB8ue170006Ev, symObjAddr: 0x14DC, symBinAddr: 0x100001FA4, symSize: 0x24 }
  - { offsetInCU: 0x186E0, offset: 0x186E0, size: 0x8, addend: 0x0, symName: __ZN6Bfprog7Opfuncs5rightERNSt3__115__list_iteratorINS_5TokenEPvEERNS1_6vectorIiNS1_9allocatorIiEEEERj, symObjAddr: 0x1500, symBinAddr: 0x100001FC8, symSize: 0x28 }
  - { offsetInCU: 0x18721, offset: 0x18721, size: 0x8, addend: 0x0, symName: __ZN6Bfprog7Opfuncs4leftERNSt3__115__list_iteratorINS_5TokenEPvEERNS1_6vectorIiNS1_9allocatorIiEEEERj, symObjAddr: 0x1528, symBinAddr: 0x100001FF0, symSize: 0x28 }
  - { offsetInCU: 0x18762, offset: 0x18762, size: 0x8, addend: 0x0, symName: __ZN6Bfprog7Opfuncs4plusERNSt3__115__list_iteratorINS_5TokenEPvEERNS1_6vectorIiNS1_9allocatorIiEEEERj, symObjAddr: 0x1550, symBinAddr: 0x100002018, symSize: 0x58 }
  - { offsetInCU: 0x187A3, offset: 0x187A3, size: 0x8, addend: 0x0, symName: __ZNSt3__16vectorIiNS_9allocatorIiEEEixB8ue170006Em, symObjAddr: 0x15A8, symBinAddr: 0x100002070, symSize: 0x24 }
  - { offsetInCU: 0x187DA, offset: 0x187DA, size: 0x8, addend: 0x0, symName: __ZN6Bfprog7Opfuncs5minusERNSt3__115__list_iteratorINS_5TokenEPvEERNS1_6vectorIiNS1_9allocatorIiEEEERj, symObjAddr: 0x15CC, symBinAddr: 0x100002094, symSize: 0x58 }
  - { offsetInCU: 0x1881B, offset: 0x1881B, size: 0x8, addend: 0x0, symName: __ZN6Bfprog7Opfuncs3outERNSt3__115__list_iteratorINS_5TokenEPvEERNS1_6vectorIiNS1_9allocatorIiEEEERj, symObjAddr: 0x1624, symBinAddr: 0x1000020EC, symSize: 0x4C }
  - { offsetInCU: 0x1885C, offset: 0x1885C, size: 0x8, addend: 0x0, symName: __ZN6Bfprog7Opfuncs2inERNSt3__115__list_iteratorINS_5TokenEPvEERNS1_6vectorIiNS1_9allocatorIiEEEERj, symObjAddr: 0x1670, symBinAddr: 0x100002138, symSize: 0xB8 }
  - { offsetInCU: 0x188AB, offset: 0x188AB, size: 0x8, addend: 0x0, symName: __ZNSt3__112basic_stringIcNS_11char_traitsIcEENS_9allocatorIcEEEC1B8ue170006Ev, symObjAddr: 0x1728, symBinAddr: 0x1000021F0, symSize: 0x2C }
  - { offsetInCU: 0x188D5, offset: 0x188D5, size: 0x8, addend: 0x0, symName: __ZNSt3__112basic_stringIcNS_11char_traitsIcEENS_9allocatorIcEEEixB8ue170006Em, symObjAddr: 0x1A60, symBinAddr: 0x100002528, symSize: 0x30 }
  - { offsetInCU: 0x1890A, offset: 0x1890A, size: 0x8, addend: 0x0, symName: __ZN6Bfprog7Opfuncs8rbracketERNSt3__115__list_iteratorINS_5TokenEPvEERNS1_6vectorIiNS1_9allocatorIiEEEERj, symObjAddr: 0x1A90, symBinAddr: 0x100002558, symSize: 0x64 }
  - { offsetInCU: 0x1894B, offset: 0x1894B, size: 0x8, addend: 0x0, symName: __ZN6Bfprog7Opfuncs8lbracketERNSt3__115__list_iteratorINS_5TokenEPvEERNS1_6vectorIiNS1_9allocatorIiEEEERj, symObjAddr: 0x1AF4, symBinAddr: 0x1000025BC, symSize: 0x64 }
  - { offsetInCU: 0x1898C, offset: 0x1898C, size: 0x8, addend: 0x0, symName: __ZN6Bfprog3runEv, symObjAddr: 0x1B58, symBinAddr: 0x100002620, symSize: 0xB0 }
  - { offsetInCU: 0x189D0, offset: 0x189D0, size: 0x8, addend: 0x0, symName: __ZNSt3__14listIN6Bfprog5TokenENS_9allocatorIS2_EEE5beginB8ue170006Ev, symObjAddr: 0x1C08, symBinAddr: 0x1000026D0, symSize: 0x2C }
  - { offsetInCU: 0x189F6, offset: 0x189F6, size: 0x8, addend: 0x0, symName: __ZNSt3__115__list_iteratorIN6Bfprog5TokenEPvEppB8ue170006Ev, symObjAddr: 0x1C68, symBinAddr: 0x100002730, symSize: 0x20 }
  - { offsetInCU: 0x18A1C, offset: 0x18A1C, size: 0x8, addend: 0x0, symName: __ZN6Bfprog7Op_genc5rightERNSt3__115__list_iteratorINS_5TokenEPvEERNS1_14basic_ofstreamIcNS1_11char_traitsIcEEEE, symObjAddr: 0x1C88, symBinAddr: 0x100002750, symSize: 0x3C }
  - { offsetInCU: 0x18A4F, offset: 0x18A4F, size: 0x8, addend: 0x0, symName: __ZNSt3__113basic_ostreamIcNS_11char_traitsIcEEElsB8ue170006EPFRS3_S4_E, symObjAddr: 0x1CC4, symBinAddr: 0x10000278C, symSize: 0x2C }
  - { offsetInCU: 0x18A83, offset: 0x18A83, size: 0x8, addend: 0x0, symName: __ZN6Bfprog7Op_genc4leftERNSt3__115__list_iteratorINS_5TokenEPvEERNS1_14basic_ofstreamIcNS1_11char_traitsIcEEEE, symObjAddr: 0x1D48, symBinAddr: 0x100002810, symSize: 0x3C }
  - { offsetInCU: 0x18AB6, offset: 0x18AB6, size: 0x8, addend: 0x0, symName: __ZN6Bfprog7Op_genc4plusERNSt3__115__list_iteratorINS_5TokenEPvEERNS1_14basic_ofstreamIcNS1_11char_traitsIcEEEE, symObjAddr: 0x1D84, symBinAddr: 0x10000284C, symSize: 0x64 }
  - { offsetInCU: 0x18AE9, offset: 0x18AE9, size: 0x8, addend: 0x0, symName: __ZN6Bfprog7Op_genc5minusERNSt3__115__list_iteratorINS_5TokenEPvEERNS1_14basic_ofstreamIcNS1_11char_traitsIcEEEE, symObjAddr: 0x1DE8, symBinAddr: 0x1000028B0, symSize: 0x64 }
  - { offsetInCU: 0x18B1C, offset: 0x18B1C, size: 0x8, addend: 0x0, symName: __ZN6Bfprog7Op_genc3outERNSt3__115__list_iteratorINS_5TokenEPvEERNS1_14basic_ofstreamIcNS1_11char_traitsIcEEEE, symObjAddr: 0x1E4C, symBinAddr: 0x100002914, symSize: 0x3C }
  - { offsetInCU: 0x18B4F, offset: 0x18B4F, size: 0x8, addend: 0x0, symName: __ZN6Bfprog7Op_genc2inERNSt3__115__list_iteratorINS_5TokenEPvEERNS1_14basic_ofstreamIcNS1_11char_traitsIcEEEE, symObjAddr: 0x1E88, symBinAddr: 0x100002950, symSize: 0x3C }
  - { offsetInCU: 0x18B82, offset: 0x18B82, size: 0x8, addend: 0x0, symName: __ZN6Bfprog7Op_genc8rbracketERNSt3__115__list_iteratorINS_5TokenEPvEERNS1_14basic_ofstreamIcNS1_11char_traitsIcEEEE, symObjAddr: 0x1EC4, symBinAddr: 0x10000298C, symSize: 0x3C }
  - { offsetInCU: 0x18BB8, offset: 0x18BB8, size: 0x8, addend: 0x0, symName: __ZN6Bfprog7Op_genc8lbracketERNSt3__115__list_iteratorINS_5TokenEPvEERNS1_14basic_ofstreamIcNS1_11char_traitsIcEEEE, symObjAddr: 0x1F00, symBinAddr: 0x1000029C8, symSize: 0x3C }
  - { offsetInCU: 0x18BEE, offset: 0x18BEE, size: 0x8, addend: 0x0, symName: __ZN6Bfprog12compile_to_cEPKc, symObjAddr: 0x1F3C, symBinAddr: 0x100002A04, symSize: 0x310 }
  - { offsetInCU: 0x18C48, offset: 0x18C48, size: 0x8, addend: 0x0, symName: __ZNSt3__114basic_ofstreamIcNS_11char_traitsIcEEEC1EPKcj, symObjAddr: 0x224C, symBinAddr: 0x100002D14, symSize: 0x16C }
  - { offsetInCU: 0x18C92, offset: 0x18C92, size: 0x8, addend: 0x0, symName: __ZNKSt3__114basic_ofstreamIcNS_11char_traitsIcEEE7is_openEv, symObjAddr: 0x23B8, symBinAddr: 0x100002E80, symSize: 0x2C }
  - { offsetInCU: 0x18CBF, offset: 0x18CBF, size: 0x8, addend: 0x0, symName: __ZNSt3__114basic_ofstreamIcNS_11char_traitsIcEEED1Ev, symObjAddr: 0x23E4, symBinAddr: 0x100002EAC, symSize: 0x40 }
  - { offsetInCU: 0x18CEC, offset: 0x18CEC, size: 0x8, addend: 0x0, symName: __ZNSt3__15stackINS_15__list_iteratorIN6Bfprog5TokenEPvEENS_5dequeIS5_NS_9allocatorIS5_EEEEED2Ev, symObjAddr: 0x2424, symBinAddr: 0x100002EEC, symSize: 0x2C }
  - { offsetInCU: 0x18D18, offset: 0x18D18, size: 0x8, addend: 0x0, symName: __ZNSt3__15dequeINS_15__list_iteratorIN6Bfprog5TokenEPvEENS_9allocatorIS5_EEED1B8ue170006Ev, symObjAddr: 0x2450, symBinAddr: 0x100002F18, symSize: 0x2C }
  - { offsetInCU: 0x18D42, offset: 0x18D42, size: 0x8, addend: 0x0, symName: __ZNSt3__15dequeINS_15__list_iteratorIN6Bfprog5TokenEPvEENS_9allocatorIS5_EEED2B8ue170006Ev, symObjAddr: 0x247C, symBinAddr: 0x100002F44, symSize: 0xA4 }
  - { offsetInCU: 0x18D98, offset: 0x18D98, size: 0x8, addend: 0x0, symName: __ZNSt3__15dequeINS_15__list_iteratorIN6Bfprog5TokenEPvEENS_9allocatorIS5_EEE5clearEv, symObjAddr: 0x2520, symBinAddr: 0x100002FE8, symSize: 0x194 }
  - { offsetInCU: 0x18DF3, offset: 0x18DF3, size: 0x8, addend: 0x0, symName: __ZNKSt3__15dequeINS_15__list_iteratorIN6Bfprog5TokenEPvEENS_9allocatorIS5_EEE17__annotate_deleteB8ue170006Ev, symObjAddr: 0x26B4, symBinAddr: 0x10000317C, symSize: 0xE8 }
  - { offsetInCU: 0x18E36, offset: 0x18E36, size: 0x8, addend: 0x0, symName: __ZNSt3__114__split_bufferIPNS_15__list_iteratorIN6Bfprog5TokenEPvEENS_9allocatorIS6_EEE5beginB8ue170006Ev, symObjAddr: 0x279C, symBinAddr: 0x100003264, symSize: 0x18 }
  - { offsetInCU: 0x18E5C, offset: 0x18E5C, size: 0x8, addend: 0x0, symName: __ZNSt3__114__split_bufferIPNS_15__list_iteratorIN6Bfprog5TokenEPvEENS_9allocatorIS6_EEE3endB8ue170006Ev, symObjAddr: 0x27B4, symBinAddr: 0x10000327C, symSize: 0x18 }
  - { offsetInCU: 0x18E82, offset: 0x18E82, size: 0x8, addend: 0x0, symName: __ZNSt3__116allocator_traitsINS_9allocatorINS_15__list_iteratorIN6Bfprog5TokenEPvEEEEE10deallocateB8ue170006ERS7_PS6_m, symObjAddr: 0x27CC, symBinAddr: 0x100003294, symSize: 0x34 }
  - { offsetInCU: 0x18EC4, offset: 0x18EC4, size: 0x8, addend: 0x0, symName: __ZNSt3__15dequeINS_15__list_iteratorIN6Bfprog5TokenEPvEENS_9allocatorIS5_EEE7__allocB8ue170006Ev, symObjAddr: 0x2800, symBinAddr: 0x1000032C8, symSize: 0x28 }
  - { offsetInCU: 0x18EEA, offset: 0x18EEA, size: 0x8, addend: 0x0, symName: __ZNSt3__114__split_bufferIPNS_15__list_iteratorIN6Bfprog5TokenEPvEENS_9allocatorIS6_EEED1Ev, symObjAddr: 0x2828, symBinAddr: 0x1000032F0, symSize: 0x2C }
  - { offsetInCU: 0x18F16, offset: 0x18F16, size: 0x8, addend: 0x0, symName: __ZNSt3__15dequeINS_15__list_iteratorIN6Bfprog5TokenEPvEENS_9allocatorIS5_EEE5beginB8ue170006Ev, symObjAddr: 0x2854, symBinAddr: 0x10000331C, symSize: 0xB8 }
  - { offsetInCU: 0x18F4B, offset: 0x18F4B, size: 0x8, addend: 0x0, symName: __ZNSt3__15dequeINS_15__list_iteratorIN6Bfprog5TokenEPvEENS_9allocatorIS5_EEE3endB8ue170006Ev, symObjAddr: 0x290C, symBinAddr: 0x1000033D4, symSize: 0xBC }
  - { offsetInCU: 0x18F8F, offset: 0x18F8F, size: 0x8, addend: 0x0, symName: __ZNSt3__116allocator_traitsINS_9allocatorINS_15__list_iteratorIN6Bfprog5TokenEPvEEEEE7destroyB8ue170006IS6_vEEvRS7_PT_, symObjAddr: 0x2A08, symBinAddr: 0x1000034D0, symSize: 0x2C }
  - { offsetInCU: 0x18FCC, offset: 0x18FCC, size: 0x8, addend: 0x0, symName: __ZNKSt3__116__deque_iteratorINS_15__list_iteratorIN6Bfprog5TokenEPvEEPS5_RS5_PS6_lLl512EEdeB8ue170006Ev, symObjAddr: 0x2A34, symBinAddr: 0x1000034FC, symSize: 0x18 }
  - { offsetInCU: 0x18FF2, offset: 0x18FF2, size: 0x8, addend: 0x0, symName: __ZNSt3__116__deque_iteratorINS_15__list_iteratorIN6Bfprog5TokenEPvEEPS5_RS5_PS6_lLl512EEppB8ue170006Ev, symObjAddr: 0x2A4C, symBinAddr: 0x100003514, symSize: 0x70 }
  - { offsetInCU: 0x19018, offset: 0x19018, size: 0x8, addend: 0x0, symName: __ZNSt3__15dequeINS_15__list_iteratorIN6Bfprog5TokenEPvEENS_9allocatorIS5_EEE6__sizeB8ue170006Ev, symObjAddr: 0x2ABC, symBinAddr: 0x100003584, symSize: 0x28 }
  - { offsetInCU: 0x1903E, offset: 0x1903E, size: 0x8, addend: 0x0, symName: __ZNKSt3__114__split_bufferIPNS_15__list_iteratorIN6Bfprog5TokenEPvEENS_9allocatorIS6_EEE4sizeB8ue170006Ev, symObjAddr: 0x2AE4, symBinAddr: 0x1000035AC, symSize: 0x28 }
  - { offsetInCU: 0x19064, offset: 0x19064, size: 0x8, addend: 0x0, symName: __ZNSt3__114__split_bufferIPNS_15__list_iteratorIN6Bfprog5TokenEPvEENS_9allocatorIS6_EEE5frontB8ue170006Ev, symObjAddr: 0x2B0C, symBinAddr: 0x1000035D4, symSize: 0x18 }
  - { offsetInCU: 0x1908A, offset: 0x1908A, size: 0x8, addend: 0x0, symName: __ZNSt3__114__split_bufferIPNS_15__list_iteratorIN6Bfprog5TokenEPvEENS_9allocatorIS6_EEE9pop_frontB8ue170006Ev, symObjAddr: 0x2B24, symBinAddr: 0x1000035EC, symSize: 0x2C }
  - { offsetInCU: 0x190B0, offset: 0x190B0, size: 0x8, addend: 0x0, symName: __ZNKSt3__15dequeINS_15__list_iteratorIN6Bfprog5TokenEPvEENS_9allocatorIS5_EEE14__annotate_newB8ue170006Em, symObjAddr: 0x2B50, symBinAddr: 0x100003618, symSize: 0xB8 }
  - { offsetInCU: 0x190E5, offset: 0x190E5, size: 0x8, addend: 0x0, symName: __ZNKSt3__114__split_bufferIPNS_15__list_iteratorIN6Bfprog5TokenEPvEENS_9allocatorIS6_EEE5emptyB8ue170006Ev, symObjAddr: 0x2C08, symBinAddr: 0x1000036D0, symSize: 0x28 }
  - { offsetInCU: 0x1910B, offset: 0x1910B, size: 0x8, addend: 0x0, symName: __ZNSt3__116__deque_iteratorINS_15__list_iteratorIN6Bfprog5TokenEPvEEPS5_RS5_PS6_lLl512EEC1B8ue170006ES8_S6_, symObjAddr: 0x2C30, symBinAddr: 0x1000036F8, symSize: 0x3C }
  - { offsetInCU: 0x19153, offset: 0x19153, size: 0x8, addend: 0x0, symName: __ZNSt3__116__deque_iteratorINS_15__list_iteratorIN6Bfprog5TokenEPvEEPS5_RS5_PS6_lLl512EEC2B8ue170006ES8_S6_, symObjAddr: 0x2C6C, symBinAddr: 0x100003734, symSize: 0x2C }
  - { offsetInCU: 0x1919B, offset: 0x1919B, size: 0x8, addend: 0x0, symName: __ZNKSt3__15dequeINS_15__list_iteratorIN6Bfprog5TokenEPvEENS_9allocatorIS5_EEE4sizeB8ue170006Ev, symObjAddr: 0x2C98, symBinAddr: 0x100003760, symSize: 0x28 }
  - { offsetInCU: 0x191C1, offset: 0x191C1, size: 0x8, addend: 0x0, symName: __ZNKSt3__15dequeINS_15__list_iteratorIN6Bfprog5TokenEPvEENS_9allocatorIS5_EEE6__sizeB8ue170006Ev, symObjAddr: 0x2CC0, symBinAddr: 0x100003788, symSize: 0x28 }
  - { offsetInCU: 0x191E7, offset: 0x191E7, size: 0x8, addend: 0x0, symName: __ZNKSt3__117__compressed_pairImNS_9allocatorINS_15__list_iteratorIN6Bfprog5TokenEPvEEEEE5firstB8ue170006Ev, symObjAddr: 0x2CE8, symBinAddr: 0x1000037B0, symSize: 0x24 }
  - { offsetInCU: 0x1920D, offset: 0x1920D, size: 0x8, addend: 0x0, symName: __ZNKSt3__122__compressed_pair_elemImLi0ELb0EE5__getB8ue170006Ev, symObjAddr: 0x2D0C, symBinAddr: 0x1000037D4, symSize: 0x14 }
  - { offsetInCU: 0x19233, offset: 0x19233, size: 0x8, addend: 0x0, symName: __ZNSt3__19allocatorINS_15__list_iteratorIN6Bfprog5TokenEPvEEE7destroyB8ue170006EPS5_, symObjAddr: 0x2D50, symBinAddr: 0x100003818, symSize: 0x14 }
  - { offsetInCU: 0x19267, offset: 0x19267, size: 0x8, addend: 0x0, symName: __ZNSt3__117__compressed_pairImNS_9allocatorINS_15__list_iteratorIN6Bfprog5TokenEPvEEEEE5firstB8ue170006Ev, symObjAddr: 0x2D64, symBinAddr: 0x10000382C, symSize: 0x24 }
  - { offsetInCU: 0x1928D, offset: 0x1928D, size: 0x8, addend: 0x0, symName: __ZNSt3__122__compressed_pair_elemImLi0ELb0EE5__getB8ue170006Ev, symObjAddr: 0x2D88, symBinAddr: 0x100003850, symSize: 0x14 }
  - { offsetInCU: 0x192B3, offset: 0x192B3, size: 0x8, addend: 0x0, symName: __ZNSt3__114__split_bufferIPNS_15__list_iteratorIN6Bfprog5TokenEPvEENS_9allocatorIS6_EEE19__destruct_at_beginB8ue170006EPS6_, symObjAddr: 0x2D9C, symBinAddr: 0x100003864, symSize: 0x2C }
  - { offsetInCU: 0x192E7, offset: 0x192E7, size: 0x8, addend: 0x0, symName: __ZNSt3__114__split_bufferIPNS_15__list_iteratorIN6Bfprog5TokenEPvEENS_9allocatorIS6_EEE19__destruct_at_beginEPS6_NS_17integral_constantIbLb1EEE, symObjAddr: 0x2DC8, symBinAddr: 0x100003890, symSize: 0x20 }
  - { offsetInCU: 0x19327, offset: 0x19327, size: 0x8, addend: 0x0, symName: __ZNKSt3__15dequeINS_15__list_iteratorIN6Bfprog5TokenEPvEENS_9allocatorIS5_EEE18__annotate_from_toB8ue170006EmmNS8_22__asan_annotation_typeENS8_23__asan_annotation_placeE, symObjAddr: 0x2DE8, symBinAddr: 0x1000038B0, symSize: 0x580 }
  - { offsetInCU: 0x194E3, offset: 0x194E3, size: 0x8, addend: 0x0, symName: __ZNKSt3__114__split_bufferIPNS_15__list_iteratorIN6Bfprog5TokenEPvEENS_9allocatorIS6_EEE5beginB8ue170006Ev, symObjAddr: 0x3368, symBinAddr: 0x100003E30, symSize: 0x18 }
  - { offsetInCU: 0x19509, offset: 0x19509, size: 0x8, addend: 0x0, symName: __ZNKSt3__15dequeINS_15__list_iteratorIN6Bfprog5TokenEPvEENS_9allocatorIS5_EEE5emptyB8ue170006Ev, symObjAddr: 0x3380, symBinAddr: 0x100003E48, symSize: 0x30 }
  - { offsetInCU: 0x1952F, offset: 0x1952F, size: 0x8, addend: 0x0, symName: __ZNKSt3__15dequeINS_15__list_iteratorIN6Bfprog5TokenEPvEENS_9allocatorIS5_EEE44__annotate_double_ended_contiguous_containerB8ue170006EPKvSA_SA_SA_SA_SA_, symObjAddr: 0x33C4, symBinAddr: 0x100003E8C, symSize: 0x28 }
  - { offsetInCU: 0x1959D, offset: 0x1959D, size: 0x8, addend: 0x0, symName: __ZNKSt3__15dequeINS_15__list_iteratorIN6Bfprog5TokenEPvEENS_9allocatorIS5_EEE22__annotate_whole_blockB8ue170006EmNS8_22__asan_annotation_typeE, symObjAddr: 0x33EC, symBinAddr: 0x100003EB4, symSize: 0xAC }
  - { offsetInCU: 0x1960E, offset: 0x1960E, size: 0x8, addend: 0x0, symName: __ZNKSt3__15dequeINS_15__list_iteratorIN6Bfprog5TokenEPvEENS_9allocatorIS5_EEE23__annotate_poison_blockB8ue170006EPKvSA_, symObjAddr: 0x3498, symBinAddr: 0x100003F60, symSize: 0x44 }
  - { offsetInCU: 0x19652, offset: 0x19652, size: 0x8, addend: 0x0, symName: __ZNSt3__19allocatorINS_15__list_iteratorIN6Bfprog5TokenEPvEEE10deallocateB8ue170006EPS5_m, symObjAddr: 0x34DC, symBinAddr: 0x100003FA4, symSize: 0x40 }
  - { offsetInCU: 0x19694, offset: 0x19694, size: 0x8, addend: 0x0, symName: __ZNSt3__117__compressed_pairImNS_9allocatorINS_15__list_iteratorIN6Bfprog5TokenEPvEEEEE6secondB8ue170006Ev, symObjAddr: 0x3644, symBinAddr: 0x10000410C, symSize: 0x24 }
  - { offsetInCU: 0x196BA, offset: 0x196BA, size: 0x8, addend: 0x0, symName: __ZNSt3__122__compressed_pair_elemINS_9allocatorINS_15__list_iteratorIN6Bfprog5TokenEPvEEEELi1ELb1EE5__getB8ue170006Ev, symObjAddr: 0x3668, symBinAddr: 0x100004130, symSize: 0x14 }
  - { offsetInCU: 0x196E0, offset: 0x196E0, size: 0x8, addend: 0x0, symName: __ZNSt3__114__split_bufferIPNS_15__list_iteratorIN6Bfprog5TokenEPvEENS_9allocatorIS6_EEED2Ev, symObjAddr: 0x367C, symBinAddr: 0x100004144, symSize: 0x8C }
  - { offsetInCU: 0x1970C, offset: 0x1970C, size: 0x8, addend: 0x0, symName: __ZNSt3__114__split_bufferIPNS_15__list_iteratorIN6Bfprog5TokenEPvEENS_9allocatorIS6_EEE5clearB8ue170006Ev, symObjAddr: 0x3708, symBinAddr: 0x1000041D0, symSize: 0x28 }
  - { offsetInCU: 0x19732, offset: 0x19732, size: 0x8, addend: 0x0, symName: __ZNSt3__116allocator_traitsINS_9allocatorIPNS_15__list_iteratorIN6Bfprog5TokenEPvEEEEE10deallocateB8ue170006ERS8_PS7_m, symObjAddr: 0x3730, symBinAddr: 0x1000041F8, symSize: 0x34 }
  - { offsetInCU: 0x19774, offset: 0x19774, size: 0x8, addend: 0x0, symName: __ZNSt3__114__split_bufferIPNS_15__list_iteratorIN6Bfprog5TokenEPvEENS_9allocatorIS6_EEE7__allocB8ue170006Ev, symObjAddr: 0x3764, symBinAddr: 0x10000422C, symSize: 0x28 }
  - { offsetInCU: 0x1979A, offset: 0x1979A, size: 0x8, addend: 0x0, symName: __ZNKSt3__114__split_bufferIPNS_15__list_iteratorIN6Bfprog5TokenEPvEENS_9allocatorIS6_EEE8capacityB8ue170006Ev, symObjAddr: 0x378C, symBinAddr: 0x100004254, symSize: 0x40 }
  - { offsetInCU: 0x197C0, offset: 0x197C0, size: 0x8, addend: 0x0, symName: __ZNSt3__114__split_bufferIPNS_15__list_iteratorIN6Bfprog5TokenEPvEENS_9allocatorIS6_EEE17__destruct_at_endB8ue170006EPS6_, symObjAddr: 0x37CC, symBinAddr: 0x100004294, symSize: 0x2C }
  - { offsetInCU: 0x197F4, offset: 0x197F4, size: 0x8, addend: 0x0, symName: __ZNSt3__114__split_bufferIPNS_15__list_iteratorIN6Bfprog5TokenEPvEENS_9allocatorIS6_EEE17__destruct_at_endB8ue170006EPS6_NS_17integral_constantIbLb0EEE, symObjAddr: 0x37F8, symBinAddr: 0x1000042C0, symSize: 0x80 }
  - { offsetInCU: 0x19834, offset: 0x19834, size: 0x8, addend: 0x0, symName: __ZNSt3__116allocator_traitsINS_9allocatorIPNS_15__list_iteratorIN6Bfprog5TokenEPvEEEEE7destroyB8ue170006IS7_vEEvRS8_PT_, symObjAddr: 0x3878, symBinAddr: 0x100004340, symSize: 0x2C }
  - { offsetInCU: 0x19871, offset: 0x19871, size: 0x8, addend: 0x0, symName: __ZNSt3__19allocatorIPNS_15__list_iteratorIN6Bfprog5TokenEPvEEE7destroyB8ue170006EPS6_, symObjAddr: 0x38B8, symBinAddr: 0x100004380, symSize: 0x14 }
  - { offsetInCU: 0x198A5, offset: 0x198A5, size: 0x8, addend: 0x0, symName: __ZNSt3__19allocatorIPNS_15__list_iteratorIN6Bfprog5TokenEPvEEE10deallocateB8ue170006EPS6_m, symObjAddr: 0x38CC, symBinAddr: 0x100004394, symSize: 0x40 }
  - { offsetInCU: 0x198E7, offset: 0x198E7, size: 0x8, addend: 0x0, symName: __ZNSt3__117__compressed_pairIPPNS_15__list_iteratorIN6Bfprog5TokenEPvEENS_9allocatorIS6_EEE6secondB8ue170006Ev, symObjAddr: 0x390C, symBinAddr: 0x1000043D4, symSize: 0x24 }
  - { offsetInCU: 0x1990D, offset: 0x1990D, size: 0x8, addend: 0x0, symName: __ZNSt3__122__compressed_pair_elemINS_9allocatorIPNS_15__list_iteratorIN6Bfprog5TokenEPvEEEELi1ELb1EE5__getB8ue170006Ev, symObjAddr: 0x3930, symBinAddr: 0x1000043F8, symSize: 0x14 }
  - { offsetInCU: 0x19933, offset: 0x19933, size: 0x8, addend: 0x0, symName: __ZNKSt3__114__split_bufferIPNS_15__list_iteratorIN6Bfprog5TokenEPvEENS_9allocatorIS6_EEE9__end_capB8ue170006Ev, symObjAddr: 0x3944, symBinAddr: 0x10000440C, symSize: 0x28 }
  - { offsetInCU: 0x19959, offset: 0x19959, size: 0x8, addend: 0x0, symName: __ZNKSt3__117__compressed_pairIPPNS_15__list_iteratorIN6Bfprog5TokenEPvEENS_9allocatorIS6_EEE5firstB8ue170006Ev, symObjAddr: 0x396C, symBinAddr: 0x100004434, symSize: 0x24 }
  - { offsetInCU: 0x1997F, offset: 0x1997F, size: 0x8, addend: 0x0, symName: __ZNKSt3__122__compressed_pair_elemIPPNS_15__list_iteratorIN6Bfprog5TokenEPvEELi0ELb0EE5__getB8ue170006Ev, symObjAddr: 0x3990, symBinAddr: 0x100004458, symSize: 0x14 }
  - { offsetInCU: 0x199A5, offset: 0x199A5, size: 0x8, addend: 0x0, symName: __ZNSt3__14listIN6Bfprog5TokenENS_9allocatorIS2_EEED2Ev, symObjAddr: 0x39A4, symBinAddr: 0x10000446C, symSize: 0x2C }
  - { offsetInCU: 0x199D2, offset: 0x199D2, size: 0x8, addend: 0x0, symName: __ZNSt3__110__list_impIN6Bfprog5TokenENS_9allocatorIS2_EEED2Ev, symObjAddr: 0x39D0, symBinAddr: 0x100004498, symSize: 0x2C }
  - { offsetInCU: 0x199FE, offset: 0x199FE, size: 0x8, addend: 0x0, symName: __ZNSt3__110__list_impIN6Bfprog5TokenENS_9allocatorIS2_EEE5clearEv, symObjAddr: 0x39FC, symBinAddr: 0x1000044C4, symSize: 0xE0 }
  - { offsetInCU: 0x19A6E, offset: 0x19A6E, size: 0x8, addend: 0x0, symName: __ZNKSt3__110__list_impIN6Bfprog5TokenENS_9allocatorIS2_EEE5emptyB8ue170006Ev, symObjAddr: 0x3ADC, symBinAddr: 0x1000045A4, symSize: 0x34 }
  - { offsetInCU: 0x19A94, offset: 0x19A94, size: 0x8, addend: 0x0, symName: __ZNSt3__110__list_impIN6Bfprog5TokenENS_9allocatorIS2_EEE12__node_allocB8ue170006Ev, symObjAddr: 0x3B10, symBinAddr: 0x1000045D8, symSize: 0x28 }
  - { offsetInCU: 0x19ABA, offset: 0x19ABA, size: 0x8, addend: 0x0, symName: __ZNKSt3__110__list_impIN6Bfprog5TokenENS_9allocatorIS2_EEE13__end_as_linkB8ue170006Ev, symObjAddr: 0x3B38, symBinAddr: 0x100004600, symSize: 0x44 }
  - { offsetInCU: 0x19AE0, offset: 0x19AE0, size: 0x8, addend: 0x0, symName: __ZNSt3__110__list_impIN6Bfprog5TokenENS_9allocatorIS2_EEE14__unlink_nodesEPNS_16__list_node_baseIS2_PvEES9_, symObjAddr: 0x3B7C, symBinAddr: 0x100004644, symSize: 0x3C }
  - { offsetInCU: 0x19B15, offset: 0x19B15, size: 0x8, addend: 0x0, symName: __ZNSt3__110__list_impIN6Bfprog5TokenENS_9allocatorIS2_EEE4__szB8ue170006Ev, symObjAddr: 0x3BB8, symBinAddr: 0x100004680, symSize: 0x28 }
  - { offsetInCU: 0x19B3B, offset: 0x19B3B, size: 0x8, addend: 0x0, symName: __ZNSt3__116__list_node_baseIN6Bfprog5TokenEPvE9__as_nodeB8ue170006Ev, symObjAddr: 0x3BE0, symBinAddr: 0x1000046A8, symSize: 0x24 }
  - { offsetInCU: 0x19B61, offset: 0x19B61, size: 0x8, addend: 0x0, symName: __ZNSt3__116allocator_traitsINS_9allocatorINS_11__list_nodeIN6Bfprog5TokenEPvEEEEE7destroyB8ue170006IS4_vvEEvRS7_PT_, symObjAddr: 0x3C04, symBinAddr: 0x1000046CC, symSize: 0x14 }
  - { offsetInCU: 0x19B9C, offset: 0x19B9C, size: 0x8, addend: 0x0, symName: __ZNSt3__116allocator_traitsINS_9allocatorINS_11__list_nodeIN6Bfprog5TokenEPvEEEEE10deallocateB8ue170006ERS7_PS6_m, symObjAddr: 0x3C18, symBinAddr: 0x1000046E0, symSize: 0x34 }
  - { offsetInCU: 0x19BDE, offset: 0x19BDE, size: 0x8, addend: 0x0, symName: __ZNKSt3__110__list_impIN6Bfprog5TokenENS_9allocatorIS2_EEE4__szB8ue170006Ev, symObjAddr: 0x3C4C, symBinAddr: 0x100004714, symSize: 0x28 }
  - { offsetInCU: 0x19C04, offset: 0x19C04, size: 0x8, addend: 0x0, symName: __ZNKSt3__117__compressed_pairImNS_9allocatorINS_11__list_nodeIN6Bfprog5TokenEPvEEEEE5firstB8ue170006Ev, symObjAddr: 0x3C74, symBinAddr: 0x10000473C, symSize: 0x24 }
  - { offsetInCU: 0x19C2A, offset: 0x19C2A, size: 0x8, addend: 0x0, symName: __ZNSt3__117__compressed_pairImNS_9allocatorINS_11__list_nodeIN6Bfprog5TokenEPvEEEEE6secondB8ue170006Ev, symObjAddr: 0x3C98, symBinAddr: 0x100004760, symSize: 0x24 }
  - { offsetInCU: 0x19C50, offset: 0x19C50, size: 0x8, addend: 0x0, symName: __ZNSt3__122__compressed_pair_elemINS_9allocatorINS_11__list_nodeIN6Bfprog5TokenEPvEEEELi1ELb1EE5__getB8ue170006Ev, symObjAddr: 0x3CBC, symBinAddr: 0x100004784, symSize: 0x14 }
  - { offsetInCU: 0x19C76, offset: 0x19C76, size: 0x8, addend: 0x0, symName: __ZNSt3__126__list_node_pointer_traitsIN6Bfprog5TokenEPvE26__unsafe_link_pointer_castB8ue170006EPNS_16__list_node_baseIS2_S3_EE, symObjAddr: 0x3CD0, symBinAddr: 0x100004798, symSize: 0x14 }
  - { offsetInCU: 0x19C9A, offset: 0x19C9A, size: 0x8, addend: 0x0, symName: __ZNSt3__116__list_node_baseIN6Bfprog5TokenEPvE6__selfB8ue170006Ev, symObjAddr: 0x3CE4, symBinAddr: 0x1000047AC, symSize: 0x24 }
  - { offsetInCU: 0x19CC6, offset: 0x19CC6, size: 0x8, addend: 0x0, symName: __ZNSt3__114pointer_traitsIPNS_16__list_node_baseIN6Bfprog5TokenEPvEEE10pointer_toB8ue170006ERS5_, symObjAddr: 0x3D08, symBinAddr: 0x1000047D0, symSize: 0x14 }
  - { offsetInCU: 0x19CE9, offset: 0x19CE9, size: 0x8, addend: 0x0, symName: __ZNSt3__117__compressed_pairImNS_9allocatorINS_11__list_nodeIN6Bfprog5TokenEPvEEEEE5firstB8ue170006Ev, symObjAddr: 0x3D1C, symBinAddr: 0x1000047E4, symSize: 0x24 }
  - { offsetInCU: 0x19D0F, offset: 0x19D0F, size: 0x8, addend: 0x0, symName: __ZNSt3__19allocatorINS_11__list_nodeIN6Bfprog5TokenEPvEEE10deallocateB8ue170006EPS5_m, symObjAddr: 0x3D40, symBinAddr: 0x100004808, symSize: 0x40 }
  - { offsetInCU: 0x19D51, offset: 0x19D51, size: 0x8, addend: 0x0, symName: __ZNSt3__114basic_ifstreamIcNS_11char_traitsIcEEED2Ev, symObjAddr: 0x3D80, symBinAddr: 0x100004848, symSize: 0x64 }
  - { offsetInCU: 0x19D8B, offset: 0x19D8B, size: 0x8, addend: 0x0, symName: __ZTv0_n24_NSt3__114basic_ifstreamIcNS_11char_traitsIcEEED1Ev, symObjAddr: 0x3DE4, symBinAddr: 0x1000048AC, symSize: 0x28 }
  - { offsetInCU: 0x19DA2, offset: 0x19DA2, size: 0x8, addend: 0x0, symName: __ZNSt3__115__list_iteratorIN6Bfprog5TokenEPvEmmB8ue170006Ev, symObjAddr: 0x3EFC, symBinAddr: 0x1000049C4, symSize: 0x20 }
  - { offsetInCU: 0x19DC8, offset: 0x19DC8, size: 0x8, addend: 0x0, symName: __ZNSt3__114basic_ofstreamIcNS_11char_traitsIcEEED2Ev, symObjAddr: 0x3F1C, symBinAddr: 0x1000049E4, symSize: 0x64 }
  - { offsetInCU: 0x19E02, offset: 0x19E02, size: 0x8, addend: 0x0, symName: __ZTv0_n24_NSt3__114basic_ofstreamIcNS_11char_traitsIcEEED1Ev, symObjAddr: 0x3F80, symBinAddr: 0x100004A48, symSize: 0x28 }
  - { offsetInCU: 0x19E19, offset: 0x19E19, size: 0x8, addend: 0x0, symName: __ZNSt3__112basic_stringIcNS_11char_traitsIcEENS_9allocatorIcEEEC2B8ue170006Ev, symObjAddr: 0x3FA8, symBinAddr: 0x100004A70, symSize: 0x48 }
  - { offsetInCU: 0x19E49, offset: 0x19E49, size: 0x8, addend: 0x0, symName: __ZNSt3__117__compressed_pairINS_12basic_stringIcNS_11char_traitsIcEENS_9allocatorIcEEE5__repES5_EC1B8ue170006INS_18__default_init_tagESA_EEOT_OT0_, symObjAddr: 0x3FF0, symBinAddr: 0x100004AB8, symSize: 0x3C }
  - { offsetInCU: 0x19EA1, offset: 0x19EA1, size: 0x8, addend: 0x0, symName: __ZNSt3__112basic_stringIcNS_11char_traitsIcEENS_9allocatorIcEEE14__default_initB8ue170006Ev, symObjAddr: 0x402C, symBinAddr: 0x100004AF4, symSize: 0x40 }
  - { offsetInCU: 0x19EC7, offset: 0x19EC7, size: 0x8, addend: 0x0, symName: __ZNSt3__117__compressed_pairINS_12basic_stringIcNS_11char_traitsIcEENS_9allocatorIcEEE5__repES5_EC2B8ue170006INS_18__default_init_tagESA_EEOT_OT0_, symObjAddr: 0x406C, symBinAddr: 0x100004B34, symSize: 0x3C }
  - { offsetInCU: 0x19F1F, offset: 0x19F1F, size: 0x8, addend: 0x0, symName: __ZNSt3__122__compressed_pair_elemINS_12basic_stringIcNS_11char_traitsIcEENS_9allocatorIcEEE5__repELi0ELb0EEC2B8ue170006ENS_18__default_init_tagE, symObjAddr: 0x40A8, symBinAddr: 0x100004B70, symSize: 0x14 }
  - { offsetInCU: 0x19F53, offset: 0x19F53, size: 0x8, addend: 0x0, symName: __ZNSt3__122__compressed_pair_elemINS_9allocatorIcEELi1ELb1EEC2B8ue170006ENS_18__default_init_tagE, symObjAddr: 0x40BC, symBinAddr: 0x100004B84, symSize: 0x2C }
  - { offsetInCU: 0x19F87, offset: 0x19F87, size: 0x8, addend: 0x0, symName: __ZNSt3__19allocatorIcEC2B8ue170006Ev, symObjAddr: 0x40E8, symBinAddr: 0x100004BB0, symSize: 0x2C }
  - { offsetInCU: 0x19FB1, offset: 0x19FB1, size: 0x8, addend: 0x0, symName: __ZNSt3__116__non_trivial_ifILb1ENS_9allocatorIcEEEC2B8ue170006Ev, symObjAddr: 0x4114, symBinAddr: 0x100004BDC, symSize: 0x14 }
  - { offsetInCU: 0x19FDB, offset: 0x19FDB, size: 0x8, addend: 0x0, symName: __ZNSt3__117__compressed_pairINS_12basic_stringIcNS_11char_traitsIcEENS_9allocatorIcEEE5__repES5_E5firstB8ue170006Ev, symObjAddr: 0x4128, symBinAddr: 0x100004BF0, symSize: 0x24 }
  - { offsetInCU: 0x1A001, offset: 0x1A001, size: 0x8, addend: 0x0, symName: __ZNSt3__122__compressed_pair_elemINS_12basic_stringIcNS_11char_traitsIcEENS_9allocatorIcEEE5__repELi0ELb0EE5__getB8ue170006Ev, symObjAddr: 0x414C, symBinAddr: 0x100004C14, symSize: 0x14 }
  - { offsetInCU: 0x1A027, offset: 0x1A027, size: 0x8, addend: 0x0, symName: __ZNSt3__16vectorIiNS_9allocatorIiEEEC2B8ue170006Ev, symObjAddr: 0x4160, symBinAddr: 0x100004C28, symSize: 0x4C }
  - { offsetInCU: 0x1A057, offset: 0x1A057, size: 0x8, addend: 0x0, symName: __ZNSt3__117__compressed_pairIPiNS_9allocatorIiEEEC1B8ue170006IDnNS_18__default_init_tagEEEOT_OT0_, symObjAddr: 0x41AC, symBinAddr: 0x100004C74, symSize: 0x3C }
  - { offsetInCU: 0x1A0AF, offset: 0x1A0AF, size: 0x8, addend: 0x0, symName: __ZNSt3__117__compressed_pairIPiNS_9allocatorIiEEEC2B8ue170006IDnNS_18__default_init_tagEEEOT_OT0_, symObjAddr: 0x41E8, symBinAddr: 0x100004CB0, symSize: 0x40 }
  - { offsetInCU: 0x1A107, offset: 0x1A107, size: 0x8, addend: 0x0, symName: __ZNSt3__122__compressed_pair_elemIPiLi0ELb0EEC2B8ue170006IDnvEEOT_, symObjAddr: 0x4228, symBinAddr: 0x100004CF0, symSize: 0x1C }
  - { offsetInCU: 0x1A149, offset: 0x1A149, size: 0x8, addend: 0x0, symName: __ZNSt3__122__compressed_pair_elemINS_9allocatorIiEELi1ELb1EEC2B8ue170006ENS_18__default_init_tagE, symObjAddr: 0x4244, symBinAddr: 0x100004D0C, symSize: 0x2C }
  - { offsetInCU: 0x1A17D, offset: 0x1A17D, size: 0x8, addend: 0x0, symName: __ZNSt3__19allocatorIiEC2B8ue170006Ev, symObjAddr: 0x4270, symBinAddr: 0x100004D38, symSize: 0x2C }
  - { offsetInCU: 0x1A1A7, offset: 0x1A1A7, size: 0x8, addend: 0x0, symName: __ZNSt3__116__non_trivial_ifILb1ENS_9allocatorIiEEEC2B8ue170006Ev, symObjAddr: 0x429C, symBinAddr: 0x100004D64, symSize: 0x14 }
  - { offsetInCU: 0x1A1D1, offset: 0x1A1D1, size: 0x8, addend: 0x0, symName: __ZNSt3__14listIN6Bfprog5TokenENS_9allocatorIS2_EEEC2B8ue170006Ev, symObjAddr: 0x42B0, symBinAddr: 0x100004D78, symSize: 0x2C }
  - { offsetInCU: 0x1A1FB, offset: 0x1A1FB, size: 0x8, addend: 0x0, symName: __ZNSt3__110__list_impIN6Bfprog5TokenENS_9allocatorIS2_EEEC2Ev, symObjAddr: 0x42DC, symBinAddr: 0x100004DA4, symSize: 0x50 }
  - { offsetInCU: 0x1A227, offset: 0x1A227, size: 0x8, addend: 0x0, symName: __ZNSt3__116__list_node_baseIN6Bfprog5TokenEPvEC1B8ue170006Ev, symObjAddr: 0x432C, symBinAddr: 0x100004DF4, symSize: 0x2C }
  - { offsetInCU: 0x1A257, offset: 0x1A257, size: 0x8, addend: 0x0, symName: __ZNSt3__117__compressed_pairImNS_9allocatorINS_11__list_nodeIN6Bfprog5TokenEPvEEEEEC1B8ue170006IiNS_18__default_init_tagEEEOT_OT0_, symObjAddr: 0x4358, symBinAddr: 0x100004E20, symSize: 0x3C }
  - { offsetInCU: 0x1A2AF, offset: 0x1A2AF, size: 0x8, addend: 0x0, symName: __ZNSt3__116__list_node_baseIN6Bfprog5TokenEPvEC2B8ue170006Ev, symObjAddr: 0x4394, symBinAddr: 0x100004E5C, symSize: 0x4C }
  - { offsetInCU: 0x1A2D9, offset: 0x1A2D9, size: 0x8, addend: 0x0, symName: __ZNSt3__117__compressed_pairImNS_9allocatorINS_11__list_nodeIN6Bfprog5TokenEPvEEEEEC2B8ue170006IiNS_18__default_init_tagEEEOT_OT0_, symObjAddr: 0x43E0, symBinAddr: 0x100004EA8, symSize: 0x40 }
  - { offsetInCU: 0x1A331, offset: 0x1A331, size: 0x8, addend: 0x0, symName: __ZNSt3__122__compressed_pair_elemImLi0ELb0EEC2B8ue170006IivEEOT_, symObjAddr: 0x4420, symBinAddr: 0x100004EE8, symSize: 0x24 }
  - { offsetInCU: 0x1A373, offset: 0x1A373, size: 0x8, addend: 0x0, symName: __ZNSt3__122__compressed_pair_elemINS_9allocatorINS_11__list_nodeIN6Bfprog5TokenEPvEEEELi1ELb1EEC2B8ue170006ENS_18__default_init_tagE, symObjAddr: 0x4444, symBinAddr: 0x100004F0C, symSize: 0x2C }
  - { offsetInCU: 0x1A3A7, offset: 0x1A3A7, size: 0x8, addend: 0x0, symName: __ZNSt3__19allocatorINS_11__list_nodeIN6Bfprog5TokenEPvEEEC2B8ue170006Ev, symObjAddr: 0x4470, symBinAddr: 0x100004F38, symSize: 0x2C }
  - { offsetInCU: 0x1A3D1, offset: 0x1A3D1, size: 0x8, addend: 0x0, symName: __ZNSt3__116__non_trivial_ifILb1ENS_9allocatorINS_11__list_nodeIN6Bfprog5TokenEPvEEEEEC2B8ue170006Ev, symObjAddr: 0x449C, symBinAddr: 0x100004F64, symSize: 0x14 }
  - { offsetInCU: 0x1A3FB, offset: 0x1A3FB, size: 0x8, addend: 0x0, symName: __ZNSt3__15stackINS_15__list_iteratorIN6Bfprog5TokenEPvEENS_5dequeIS5_NS_9allocatorIS5_EEEEEC2B8ue170006Ev, symObjAddr: 0x44B0, symBinAddr: 0x100004F78, symSize: 0x2C }
  - { offsetInCU: 0x1A425, offset: 0x1A425, size: 0x8, addend: 0x0, symName: __ZNSt3__15dequeINS_15__list_iteratorIN6Bfprog5TokenEPvEENS_9allocatorIS5_EEEC1B8ue170006Ev, symObjAddr: 0x44DC, symBinAddr: 0x100004FA4, symSize: 0x2C }
  - { offsetInCU: 0x1A44F, offset: 0x1A44F, size: 0x8, addend: 0x0, symName: __ZNSt3__15dequeINS_15__list_iteratorIN6Bfprog5TokenEPvEENS_9allocatorIS5_EEEC2B8ue170006Ev, symObjAddr: 0x4508, symBinAddr: 0x100004FD0, symSize: 0x5C }
  - { offsetInCU: 0x1A479, offset: 0x1A479, size: 0x8, addend: 0x0, symName: __ZNSt3__114__split_bufferIPNS_15__list_iteratorIN6Bfprog5TokenEPvEENS_9allocatorIS6_EEEC1B8ue170006Ev, symObjAddr: 0x4564, symBinAddr: 0x10000502C, symSize: 0x2C }
  - { offsetInCU: 0x1A4A3, offset: 0x1A4A3, size: 0x8, addend: 0x0, symName: __ZNSt3__117__compressed_pairImNS_9allocatorINS_15__list_iteratorIN6Bfprog5TokenEPvEEEEEC1B8ue170006IiNS_18__default_init_tagEEEOT_OT0_, symObjAddr: 0x4590, symBinAddr: 0x100005058, symSize: 0x3C }
  - { offsetInCU: 0x1A4FB, offset: 0x1A4FB, size: 0x8, addend: 0x0, symName: __ZNSt3__114__split_bufferIPNS_15__list_iteratorIN6Bfprog5TokenEPvEENS_9allocatorIS6_EEEC2B8ue170006Ev, symObjAddr: 0x45CC, symBinAddr: 0x100005094, symSize: 0x50 }
  - { offsetInCU: 0x1A525, offset: 0x1A525, size: 0x8, addend: 0x0, symName: __ZNSt3__117__compressed_pairIPPNS_15__list_iteratorIN6Bfprog5TokenEPvEENS_9allocatorIS6_EEEC1B8ue170006IDnNS_18__default_init_tagEEEOT_OT0_, symObjAddr: 0x461C, symBinAddr: 0x1000050E4, symSize: 0x3C }
  - { offsetInCU: 0x1A57D, offset: 0x1A57D, size: 0x8, addend: 0x0, symName: __ZNSt3__117__compressed_pairIPPNS_15__list_iteratorIN6Bfprog5TokenEPvEENS_9allocatorIS6_EEEC2B8ue170006IDnNS_18__default_init_tagEEEOT_OT0_, symObjAddr: 0x4658, symBinAddr: 0x100005120, symSize: 0x40 }
  - { offsetInCU: 0x1A5D5, offset: 0x1A5D5, size: 0x8, addend: 0x0, symName: __ZNSt3__122__compressed_pair_elemIPPNS_15__list_iteratorIN6Bfprog5TokenEPvEELi0ELb0EEC2B8ue170006IDnvEEOT_, symObjAddr: 0x4698, symBinAddr: 0x100005160, symSize: 0x1C }
  - { offsetInCU: 0x1A617, offset: 0x1A617, size: 0x8, addend: 0x0, symName: __ZNSt3__122__compressed_pair_elemINS_9allocatorIPNS_15__list_iteratorIN6Bfprog5TokenEPvEEEELi1ELb1EEC2B8ue170006ENS_18__default_init_tagE, symObjAddr: 0x46B4, symBinAddr: 0x10000517C, symSize: 0x2C }
  - { offsetInCU: 0x1A64B, offset: 0x1A64B, size: 0x8, addend: 0x0, symName: __ZNSt3__19allocatorIPNS_15__list_iteratorIN6Bfprog5TokenEPvEEEC2B8ue170006Ev, symObjAddr: 0x46E0, symBinAddr: 0x1000051A8, symSize: 0x2C }
  - { offsetInCU: 0x1A675, offset: 0x1A675, size: 0x8, addend: 0x0, symName: __ZNSt3__116__non_trivial_ifILb1ENS_9allocatorIPNS_15__list_iteratorIN6Bfprog5TokenEPvEEEEEC2B8ue170006Ev, symObjAddr: 0x470C, symBinAddr: 0x1000051D4, symSize: 0x14 }
  - { offsetInCU: 0x1A69F, offset: 0x1A69F, size: 0x8, addend: 0x0, symName: __ZNSt3__117__compressed_pairImNS_9allocatorINS_15__list_iteratorIN6Bfprog5TokenEPvEEEEEC2B8ue170006IiNS_18__default_init_tagEEEOT_OT0_, symObjAddr: 0x4720, symBinAddr: 0x1000051E8, symSize: 0x40 }
  - { offsetInCU: 0x1A6F7, offset: 0x1A6F7, size: 0x8, addend: 0x0, symName: __ZNSt3__122__compressed_pair_elemINS_9allocatorINS_15__list_iteratorIN6Bfprog5TokenEPvEEEELi1ELb1EEC2B8ue170006ENS_18__default_init_tagE, symObjAddr: 0x4760, symBinAddr: 0x100005228, symSize: 0x2C }
  - { offsetInCU: 0x1A72B, offset: 0x1A72B, size: 0x8, addend: 0x0, symName: __ZNSt3__19allocatorINS_15__list_iteratorIN6Bfprog5TokenEPvEEEC2B8ue170006Ev, symObjAddr: 0x478C, symBinAddr: 0x100005254, symSize: 0x2C }
  - { offsetInCU: 0x1A755, offset: 0x1A755, size: 0x8, addend: 0x0, symName: __ZNSt3__116__non_trivial_ifILb1ENS_9allocatorINS_15__list_iteratorIN6Bfprog5TokenEPvEEEEEC2B8ue170006Ev, symObjAddr: 0x47B8, symBinAddr: 0x100005280, symSize: 0x14 }
  - { offsetInCU: 0x1A77F, offset: 0x1A77F, size: 0x8, addend: 0x0, symName: __ZNSt3__16vectorIiNS_9allocatorIiEEED2B8ue170006Ev, symObjAddr: 0x47CC, symBinAddr: 0x100005294, symSize: 0x44 }
  - { offsetInCU: 0x1A7A9, offset: 0x1A7A9, size: 0x8, addend: 0x0, symName: __ZNSt3__16vectorIiNS_9allocatorIiEEE16__destroy_vectorC1B8ue170006ERS3_, symObjAddr: 0x4810, symBinAddr: 0x1000052D8, symSize: 0x34 }
  - { offsetInCU: 0x1A7E2, offset: 0x1A7E2, size: 0x8, addend: 0x0, symName: __ZNSt3__16vectorIiNS_9allocatorIiEEE16__destroy_vectorclB8ue170006Ev, symObjAddr: 0x4844, symBinAddr: 0x10000530C, symSize: 0x90 }
  - { offsetInCU: 0x1A808, offset: 0x1A808, size: 0x8, addend: 0x0, symName: __ZNSt3__16vectorIiNS_9allocatorIiEEE16__destroy_vectorC2B8ue170006ERS3_, symObjAddr: 0x48D4, symBinAddr: 0x10000539C, symSize: 0x20 }
  - { offsetInCU: 0x1A841, offset: 0x1A841, size: 0x8, addend: 0x0, symName: __ZNSt3__16vectorIiNS_9allocatorIiEEE7__clearB8ue170006Ev, symObjAddr: 0x48F4, symBinAddr: 0x1000053BC, symSize: 0x28 }
  - { offsetInCU: 0x1A867, offset: 0x1A867, size: 0x8, addend: 0x0, symName: __ZNKSt3__16vectorIiNS_9allocatorIiEEE17__annotate_deleteB8ue170006Ev, symObjAddr: 0x491C, symBinAddr: 0x1000053E4, symSize: 0xB8 }
  - { offsetInCU: 0x1A88D, offset: 0x1A88D, size: 0x8, addend: 0x0, symName: __ZNSt3__116allocator_traitsINS_9allocatorIiEEE10deallocateB8ue170006ERS2_Pim, symObjAddr: 0x49D4, symBinAddr: 0x10000549C, symSize: 0x34 }
  - { offsetInCU: 0x1A8CF, offset: 0x1A8CF, size: 0x8, addend: 0x0, symName: __ZNSt3__16vectorIiNS_9allocatorIiEEE7__allocB8ue170006Ev, symObjAddr: 0x4A08, symBinAddr: 0x1000054D0, symSize: 0x28 }
  - { offsetInCU: 0x1A8F5, offset: 0x1A8F5, size: 0x8, addend: 0x0, symName: __ZNKSt3__16vectorIiNS_9allocatorIiEEE8capacityB8ue170006Ev, symObjAddr: 0x4A30, symBinAddr: 0x1000054F8, symSize: 0x40 }
  - { offsetInCU: 0x1A91B, offset: 0x1A91B, size: 0x8, addend: 0x0, symName: __ZNSt3__16vectorIiNS_9allocatorIiEEE22__base_destruct_at_endB8ue170006EPi, symObjAddr: 0x4A70, symBinAddr: 0x100005538, symSize: 0x8C }
  - { offsetInCU: 0x1A95F, offset: 0x1A95F, size: 0x8, addend: 0x0, symName: __ZNSt3__116allocator_traitsINS_9allocatorIiEEE7destroyB8ue170006IivEEvRS2_PT_, symObjAddr: 0x4AFC, symBinAddr: 0x1000055C4, symSize: 0x2C }
  - { offsetInCU: 0x1A99C, offset: 0x1A99C, size: 0x8, addend: 0x0, symName: __ZNSt3__19allocatorIiE7destroyB8ue170006EPi, symObjAddr: 0x4B3C, symBinAddr: 0x100005604, symSize: 0x14 }
  - { offsetInCU: 0x1A9D0, offset: 0x1A9D0, size: 0x8, addend: 0x0, symName: __ZNKSt3__16vectorIiNS_9allocatorIiEEE31__annotate_contiguous_containerB8ue170006EPKvS5_S5_S5_, symObjAddr: 0x4B50, symBinAddr: 0x100005618, symSize: 0x20 }
  - { offsetInCU: 0x1AA26, offset: 0x1AA26, size: 0x8, addend: 0x0, symName: __ZNKSt3__16vectorIiNS_9allocatorIiEEE4dataB8ue170006Ev, symObjAddr: 0x4B70, symBinAddr: 0x100005638, symSize: 0x28 }
  - { offsetInCU: 0x1AA4C, offset: 0x1AA4C, size: 0x8, addend: 0x0, symName: __ZNKSt3__16vectorIiNS_9allocatorIiEEE4sizeB8ue170006Ev, symObjAddr: 0x4B98, symBinAddr: 0x100005660, symSize: 0x28 }
  - { offsetInCU: 0x1AA72, offset: 0x1AA72, size: 0x8, addend: 0x0, symName: __ZNSt3__19allocatorIiE10deallocateB8ue170006EPim, symObjAddr: 0x4BC0, symBinAddr: 0x100005688, symSize: 0x40 }
  - { offsetInCU: 0x1AAB4, offset: 0x1AAB4, size: 0x8, addend: 0x0, symName: __ZNSt3__117__compressed_pairIPiNS_9allocatorIiEEE6secondB8ue170006Ev, symObjAddr: 0x4C00, symBinAddr: 0x1000056C8, symSize: 0x24 }
  - { offsetInCU: 0x1AADA, offset: 0x1AADA, size: 0x8, addend: 0x0, symName: __ZNSt3__122__compressed_pair_elemINS_9allocatorIiEELi1ELb1EE5__getB8ue170006Ev, symObjAddr: 0x4C24, symBinAddr: 0x1000056EC, symSize: 0x14 }
  - { offsetInCU: 0x1AB00, offset: 0x1AB00, size: 0x8, addend: 0x0, symName: __ZNKSt3__16vectorIiNS_9allocatorIiEEE9__end_capB8ue170006Ev, symObjAddr: 0x4C38, symBinAddr: 0x100005700, symSize: 0x28 }
  - { offsetInCU: 0x1AB26, offset: 0x1AB26, size: 0x8, addend: 0x0, symName: __ZNKSt3__117__compressed_pairIPiNS_9allocatorIiEEE5firstB8ue170006Ev, symObjAddr: 0x4C60, symBinAddr: 0x100005728, symSize: 0x24 }
  - { offsetInCU: 0x1AB4C, offset: 0x1AB4C, size: 0x8, addend: 0x0, symName: __ZNKSt3__122__compressed_pair_elemIPiLi0ELb0EE5__getB8ue170006Ev, symObjAddr: 0x4C84, symBinAddr: 0x10000574C, symSize: 0x14 }
  - { offsetInCU: 0x1AB72, offset: 0x1AB72, size: 0x8, addend: 0x0, symName: __ZNSt3__16vectorIiNS_9allocatorIiEEEC2Em, symObjAddr: 0x4C98, symBinAddr: 0x100005760, symSize: 0xD4 }
  - { offsetInCU: 0x1ABC2, offset: 0x1ABC2, size: 0x8, addend: 0x0, symName: __ZNSt3__16vectorIiNS_9allocatorIiEEE11__vallocateB8ue170006Em, symObjAddr: 0x4DAC, symBinAddr: 0x100005874, symSize: 0xAC }
  - { offsetInCU: 0x1AC06, offset: 0x1AC06, size: 0x8, addend: 0x0, symName: __ZNSt3__16vectorIiNS_9allocatorIiEEE18__construct_at_endEm, symObjAddr: 0x4E58, symBinAddr: 0x100005920, symSize: 0xC8 }
  - { offsetInCU: 0x1AC78, offset: 0x1AC78, size: 0x8, addend: 0x0, symName: __ZNSt3__128__exception_guard_exceptionsINS_6vectorIiNS_9allocatorIiEEE16__destroy_vectorEE10__completeB8ue170006Ev, symObjAddr: 0x4F20, symBinAddr: 0x1000059E8, symSize: 0x1C }
  - { offsetInCU: 0x1AC9E, offset: 0x1AC9E, size: 0x8, addend: 0x0, symName: __ZNSt3__128__exception_guard_exceptionsINS_6vectorIiNS_9allocatorIiEEE16__destroy_vectorEED1B8ue170006Ev, symObjAddr: 0x4F3C, symBinAddr: 0x100005A04, symSize: 0x2C }
  - { offsetInCU: 0x1ACC8, offset: 0x1ACC8, size: 0x8, addend: 0x0, symName: __ZNSt3__128__exception_guard_exceptionsINS_6vectorIiNS_9allocatorIiEEE16__destroy_vectorEEC1B8ue170006ES5_, symObjAddr: 0x4F68, symBinAddr: 0x100005A30, symSize: 0x34 }
  - { offsetInCU: 0x1AD00, offset: 0x1AD00, size: 0x8, addend: 0x0, symName: __ZNSt3__128__exception_guard_exceptionsINS_6vectorIiNS_9allocatorIiEEE16__destroy_vectorEEC2B8ue170006ES5_, symObjAddr: 0x4F9C, symBinAddr: 0x100005A64, symSize: 0x24 }
  - { offsetInCU: 0x1AD38, offset: 0x1AD38, size: 0x8, addend: 0x0, symName: __ZNKSt3__16vectorIiNS_9allocatorIiEEE8max_sizeEv, symObjAddr: 0x4FC0, symBinAddr: 0x100005A88, symSize: 0x60 }
  - { offsetInCU: 0x1AD60, offset: 0x1AD60, size: 0x8, addend: 0x0, symName: __ZNKSt3__16vectorIiNS_9allocatorIiEEE20__throw_length_errorB8ue170006Ev, symObjAddr: 0x5020, symBinAddr: 0x100005AE8, symSize: 0x1C }
  - { offsetInCU: 0x1AD86, offset: 0x1AD86, size: 0x8, addend: 0x0, symName: __ZNSt3__16vectorIiNS_9allocatorIiEEE9__end_capB8ue170006Ev, symObjAddr: 0x507C, symBinAddr: 0x100005B44, symSize: 0x28 }
  - { offsetInCU: 0x1ADAC, offset: 0x1ADAC, size: 0x8, addend: 0x0, symName: __ZNKSt3__16vectorIiNS_9allocatorIiEEE14__annotate_newB8ue170006Em, symObjAddr: 0x50A4, symBinAddr: 0x100005B6C, symSize: 0xAC }
  - { offsetInCU: 0x1ADEC, offset: 0x1ADEC, size: 0x8, addend: 0x0, symName: __ZNSt3__116allocator_traitsINS_9allocatorIiEEE8max_sizeB8ue170006IS2_vEEmRKS2_, symObjAddr: 0x517C, symBinAddr: 0x100005C44, symSize: 0x24 }
  - { offsetInCU: 0x1AE1A, offset: 0x1AE1A, size: 0x8, addend: 0x0, symName: __ZNKSt3__16vectorIiNS_9allocatorIiEEE7__allocB8ue170006Ev, symObjAddr: 0x51A0, symBinAddr: 0x100005C68, symSize: 0x28 }
  - { offsetInCU: 0x1AE40, offset: 0x1AE40, size: 0x8, addend: 0x0, symName: __ZNSt3__114numeric_limitsIlE3maxB8ue170006Ev, symObjAddr: 0x51C8, symBinAddr: 0x100005C90, symSize: 0x14 }
  - { offsetInCU: 0x1AE5E, offset: 0x1AE5E, size: 0x8, addend: 0x0, symName: __ZNKSt3__16__lessIvvEclB8ue170006ImmEEbRKT_RKT0_, symObjAddr: 0x5230, symBinAddr: 0x100005CF8, symSize: 0x34 }
  - { offsetInCU: 0x1AEB2, offset: 0x1AEB2, size: 0x8, addend: 0x0, symName: __ZNKSt3__19allocatorIiE8max_sizeB8ue170006Ev, symObjAddr: 0x5264, symBinAddr: 0x100005D2C, symSize: 0x14 }
  - { offsetInCU: 0x1AED8, offset: 0x1AED8, size: 0x8, addend: 0x0, symName: __ZNKSt3__117__compressed_pairIPiNS_9allocatorIiEEE6secondB8ue170006Ev, symObjAddr: 0x5278, symBinAddr: 0x100005D40, symSize: 0x24 }
  - { offsetInCU: 0x1AEFE, offset: 0x1AEFE, size: 0x8, addend: 0x0, symName: __ZNKSt3__122__compressed_pair_elemINS_9allocatorIiEELi1ELb1EE5__getB8ue170006Ev, symObjAddr: 0x529C, symBinAddr: 0x100005D64, symSize: 0x14 }
  - { offsetInCU: 0x1AF24, offset: 0x1AF24, size: 0x8, addend: 0x0, symName: __ZNSt3__123__libcpp_numeric_limitsIlLb1EE3maxB8ue170006Ev, symObjAddr: 0x52B0, symBinAddr: 0x100005D78, symSize: 0x8 }
  - { offsetInCU: 0x1AF38, offset: 0x1AF38, size: 0x8, addend: 0x0, symName: __ZNSt12length_errorC1B8ue170006EPKc, symObjAddr: 0x531C, symBinAddr: 0x100005DE4, symSize: 0x34 }
  - { offsetInCU: 0x1AF70, offset: 0x1AF70, size: 0x8, addend: 0x0, symName: __ZNSt12length_errorC2B8ue170006EPKc, symObjAddr: 0x5350, symBinAddr: 0x100005E18, symSize: 0x4C }
  - { offsetInCU: 0x1AFA8, offset: 0x1AFA8, size: 0x8, addend: 0x0, symName: __ZNSt3__19allocatorIiE8allocateB8ue170006Em, symObjAddr: 0x539C, symBinAddr: 0x100005E64, symSize: 0x58 }
  - { offsetInCU: 0x1AFDC, offset: 0x1AFDC, size: 0x8, addend: 0x0, symName: __ZNSt3__117__compressed_pairIPiNS_9allocatorIiEEE5firstB8ue170006Ev, symObjAddr: 0x54D8, symBinAddr: 0x100005FA0, symSize: 0x24 }
  - { offsetInCU: 0x1B002, offset: 0x1B002, size: 0x8, addend: 0x0, symName: __ZNSt3__122__compressed_pair_elemIPiLi0ELb0EE5__getB8ue170006Ev, symObjAddr: 0x54FC, symBinAddr: 0x100005FC4, symSize: 0x14 }
  - { offsetInCU: 0x1B043, offset: 0x1B043, size: 0x8, addend: 0x0, symName: __ZNSt3__16vectorIiNS_9allocatorIiEEE21_ConstructTransactionC1B8ue170006ERS3_m, symObjAddr: 0x5510, symBinAddr: 0x100005FD8, symSize: 0x3C }
  - { offsetInCU: 0x1B08B, offset: 0x1B08B, size: 0x8, addend: 0x0, symName: __ZNSt3__116allocator_traitsINS_9allocatorIiEEE9constructB8ue170006IiJEvEEvRS2_PT_DpOT0_, symObjAddr: 0x554C, symBinAddr: 0x100006014, symSize: 0x2C }
  - { offsetInCU: 0x1B0CD, offset: 0x1B0CD, size: 0x8, addend: 0x0, symName: __ZNSt3__16vectorIiNS_9allocatorIiEEE21_ConstructTransactionD1B8ue170006Ev, symObjAddr: 0x5578, symBinAddr: 0x100006040, symSize: 0x2C }
  - { offsetInCU: 0x1B0F7, offset: 0x1B0F7, size: 0x8, addend: 0x0, symName: __ZNSt3__16vectorIiNS_9allocatorIiEEE21_ConstructTransactionC2B8ue170006ERS3_m, symObjAddr: 0x55A4, symBinAddr: 0x10000606C, symSize: 0x44 }
  - { offsetInCU: 0x1B13F, offset: 0x1B13F, size: 0x8, addend: 0x0, symName: __ZNSt3__19allocatorIiE9constructB8ue170006IiJEEEvPT_DpOT0_, symObjAddr: 0x55E8, symBinAddr: 0x1000060B0, symSize: 0x1C }
  - { offsetInCU: 0x1B181, offset: 0x1B181, size: 0x8, addend: 0x0, symName: __ZNSt3__16vectorIiNS_9allocatorIiEEE21_ConstructTransactionD2B8ue170006Ev, symObjAddr: 0x5604, symBinAddr: 0x1000060CC, symSize: 0x20 }
  - { offsetInCU: 0x1B1AB, offset: 0x1B1AB, size: 0x8, addend: 0x0, symName: __ZNSt3__128__exception_guard_exceptionsINS_6vectorIiNS_9allocatorIiEEE16__destroy_vectorEED2B8ue170006Ev, symObjAddr: 0x5624, symBinAddr: 0x1000060EC, symSize: 0x48 }
  - { offsetInCU: 0x1B1D5, offset: 0x1B1D5, size: 0x8, addend: 0x0, symName: __ZNSt3__16vectorIiNS_9allocatorIiEEE13__move_assignERS3_NS_17integral_constantIbLb1EEE, symObjAddr: 0x566C, symBinAddr: 0x100006134, symSize: 0x94 }
  - { offsetInCU: 0x1B218, offset: 0x1B218, size: 0x8, addend: 0x0, symName: __ZNSt3__16vectorIiNS_9allocatorIiEEE13__vdeallocateEv, symObjAddr: 0x5700, symBinAddr: 0x1000061C8, symSize: 0x94 }
  - { offsetInCU: 0x1B240, offset: 0x1B240, size: 0x8, addend: 0x0, symName: __ZNSt3__16vectorIiNS_9allocatorIiEEE19__move_assign_allocB8ue170006ERS3_, symObjAddr: 0x5794, symBinAddr: 0x10000625C, symSize: 0x2C }
  - { offsetInCU: 0x1B275, offset: 0x1B275, size: 0x8, addend: 0x0, symName: __ZNSt3__16vectorIiNS_9allocatorIiEEE5clearB8ue170006Ev, symObjAddr: 0x57C0, symBinAddr: 0x100006288, symSize: 0x44 }
  - { offsetInCU: 0x1B2AA, offset: 0x1B2AA, size: 0x8, addend: 0x0, symName: __ZNKSt3__16vectorIiNS_9allocatorIiEEE17__annotate_shrinkB8ue170006Em, symObjAddr: 0x5804, symBinAddr: 0x1000062CC, symSize: 0xB4 }
  - { offsetInCU: 0x1B2DF, offset: 0x1B2DF, size: 0x8, addend: 0x0, symName: __ZNSt3__16vectorIiNS_9allocatorIiEEE19__move_assign_allocB8ue170006ERS3_NS_17integral_constantIbLb1EEE, symObjAddr: 0x58B8, symBinAddr: 0x100006380, symSize: 0x38 }
  - { offsetInCU: 0x1B341, offset: 0x1B341, size: 0x8, addend: 0x0, symName: __ZNKSt3__113basic_ostreamIcNS_11char_traitsIcEEE6sentrycvbB8ue170006Ev, symObjAddr: 0x5ADC, symBinAddr: 0x1000065A4, symSize: 0x1C }
  - { offsetInCU: 0x1B367, offset: 0x1B367, size: 0x8, addend: 0x0, symName: __ZNSt3__119ostreambuf_iteratorIcNS_11char_traitsIcEEEC1B8ue170006ERNS_13basic_ostreamIcS2_EE, symObjAddr: 0x5D38, symBinAddr: 0x100006800, symSize: 0x34 }
  - { offsetInCU: 0x1B39F, offset: 0x1B39F, size: 0x8, addend: 0x0, symName: __ZNKSt3__18ios_base5flagsB8ue170006Ev, symObjAddr: 0x5D6C, symBinAddr: 0x100006834, symSize: 0x18 }
  - { offsetInCU: 0x1B3C7, offset: 0x1B3C7, size: 0x8, addend: 0x0, symName: __ZNKSt3__19basic_iosIcNS_11char_traitsIcEEE4fillB8ue170006Ev, symObjAddr: 0x5D84, symBinAddr: 0x10000684C, symSize: 0x64 }
  - { offsetInCU: 0x1B3EF, offset: 0x1B3EF, size: 0x8, addend: 0x0, symName: __ZNKSt3__119ostreambuf_iteratorIcNS_11char_traitsIcEEE6failedB8ue170006Ev, symObjAddr: 0x5DE8, symBinAddr: 0x1000068B0, symSize: 0x24 }
  - { offsetInCU: 0x1B415, offset: 0x1B415, size: 0x8, addend: 0x0, symName: __ZNSt3__19basic_iosIcNS_11char_traitsIcEEE8setstateB8ue170006Ej, symObjAddr: 0x5E0C, symBinAddr: 0x1000068D4, symSize: 0x2C }
  - { offsetInCU: 0x1B44A, offset: 0x1B44A, size: 0x8, addend: 0x0, symName: __ZNKSt3__18ios_base5widthB8ue170006Ev, symObjAddr: 0x5E38, symBinAddr: 0x100006900, symSize: 0x18 }
  - { offsetInCU: 0x1B472, offset: 0x1B472, size: 0x8, addend: 0x0, symName: __ZNSt3__115basic_streambufIcNS_11char_traitsIcEEE5sputnB8ue170006EPKcl, symObjAddr: 0x5E50, symBinAddr: 0x100006918, symSize: 0x3C }
  - { offsetInCU: 0x1B4B4, offset: 0x1B4B4, size: 0x8, addend: 0x0, symName: __ZNSt3__112basic_stringIcNS_11char_traitsIcEENS_9allocatorIcEEEC1B8ue170006Emc, symObjAddr: 0x5E8C, symBinAddr: 0x100006954, symSize: 0x3C }
  - { offsetInCU: 0x1B4FC, offset: 0x1B4FC, size: 0x8, addend: 0x0, symName: __ZNSt3__112basic_stringIcNS_11char_traitsIcEENS_9allocatorIcEEE4dataB8ue170006Ev, symObjAddr: 0x5EC8, symBinAddr: 0x100006990, symSize: 0x28 }
  - { offsetInCU: 0x1B522, offset: 0x1B522, size: 0x8, addend: 0x0, symName: __ZNSt3__18ios_base5widthB8ue170006El, symObjAddr: 0x5EF0, symBinAddr: 0x1000069B8, symSize: 0x2C }
  - { offsetInCU: 0x1B568, offset: 0x1B568, size: 0x8, addend: 0x0, symName: __ZNSt3__112basic_stringIcNS_11char_traitsIcEENS_9allocatorIcEEEC2B8ue170006Emc, symObjAddr: 0x5F1C, symBinAddr: 0x1000069E4, symSize: 0x4C }
  - { offsetInCU: 0x1B5B0, offset: 0x1B5B0, size: 0x8, addend: 0x0, symName: __ZNSt3__112basic_stringIcNS_11char_traitsIcEENS_9allocatorIcEEE13__get_pointerB8ue170006Ev, symObjAddr: 0x5F7C, symBinAddr: 0x100006A44, symSize: 0x54 }
  - { offsetInCU: 0x1B5D6, offset: 0x1B5D6, size: 0x8, addend: 0x0, symName: __ZNKSt3__112basic_stringIcNS_11char_traitsIcEENS_9allocatorIcEEE9__is_longB8ue170006Ev, symObjAddr: 0x5FD0, symBinAddr: 0x100006A98, symSize: 0x38 }
  - { offsetInCU: 0x1B5FC, offset: 0x1B5FC, size: 0x8, addend: 0x0, symName: __ZNSt3__112basic_stringIcNS_11char_traitsIcEENS_9allocatorIcEEE18__get_long_pointerB8ue170006Ev, symObjAddr: 0x6008, symBinAddr: 0x100006AD0, symSize: 0x28 }
  - { offsetInCU: 0x1B622, offset: 0x1B622, size: 0x8, addend: 0x0, symName: __ZNSt3__112basic_stringIcNS_11char_traitsIcEENS_9allocatorIcEEE19__get_short_pointerB8ue170006Ev, symObjAddr: 0x6030, symBinAddr: 0x100006AF8, symSize: 0x28 }
  - { offsetInCU: 0x1B648, offset: 0x1B648, size: 0x8, addend: 0x0, symName: __ZNKSt3__117__compressed_pairINS_12basic_stringIcNS_11char_traitsIcEENS_9allocatorIcEEE5__repES5_E5firstB8ue170006Ev, symObjAddr: 0x6058, symBinAddr: 0x100006B20, symSize: 0x24 }
  - { offsetInCU: 0x1B66E, offset: 0x1B66E, size: 0x8, addend: 0x0, symName: __ZNKSt3__122__compressed_pair_elemINS_12basic_stringIcNS_11char_traitsIcEENS_9allocatorIcEEE5__repELi0ELb0EE5__getB8ue170006Ev, symObjAddr: 0x607C, symBinAddr: 0x100006B44, symSize: 0x14 }
  - { offsetInCU: 0x1B694, offset: 0x1B694, size: 0x8, addend: 0x0, symName: __ZNSt3__114pointer_traitsIPcE10pointer_toB8ue170006ERc, symObjAddr: 0x6090, symBinAddr: 0x100006B58, symSize: 0x14 }
  - { offsetInCU: 0x1B6B7, offset: 0x1B6B7, size: 0x8, addend: 0x0, symName: __ZNSt3__119ostreambuf_iteratorIcNS_11char_traitsIcEEEC2B8ue170006ERNS_13basic_ostreamIcS2_EE, symObjAddr: 0x60A4, symBinAddr: 0x100006B6C, symSize: 0x54 }
  - { offsetInCU: 0x1B6EF, offset: 0x1B6EF, size: 0x8, addend: 0x0, symName: __ZNKSt3__19basic_iosIcNS_11char_traitsIcEEE5rdbufB8ue170006Ev, symObjAddr: 0x60F8, symBinAddr: 0x100006BC0, symSize: 0x24 }
  - { offsetInCU: 0x1B717, offset: 0x1B717, size: 0x8, addend: 0x0, symName: __ZNKSt3__18ios_base5rdbufB8ue170006Ev, symObjAddr: 0x611C, symBinAddr: 0x100006BE4, symSize: 0x18 }
  - { offsetInCU: 0x1B73D, offset: 0x1B73D, size: 0x8, addend: 0x0, symName: __ZNSt3__111char_traitsIcE11eq_int_typeB8ue170006Eii, symObjAddr: 0x6134, symBinAddr: 0x100006BFC, symSize: 0x28 }
  - { offsetInCU: 0x1B770, offset: 0x1B770, size: 0x8, addend: 0x0, symName: __ZNSt3__111char_traitsIcE3eofB8ue170006Ev, symObjAddr: 0x615C, symBinAddr: 0x100006C24, symSize: 0x8 }
  - { offsetInCU: 0x1B784, offset: 0x1B784, size: 0x8, addend: 0x0, symName: __ZNKSt3__19basic_iosIcNS_11char_traitsIcEEE5widenB8ue170006Ec, symObjAddr: 0x6164, symBinAddr: 0x100006C2C, symSize: 0x84 }
  - { offsetInCU: 0x1B7E3, offset: 0x1B7E3, size: 0x8, addend: 0x0, symName: __ZNKSt3__15ctypeIcE5widenB8ue170006Ec, symObjAddr: 0x6214, symBinAddr: 0x100006CDC, symSize: 0x38 }
  - { offsetInCU: 0x1B818, offset: 0x1B818, size: 0x8, addend: 0x0, symName: __ZNSt3__18ios_base8setstateB8ue170006Ej, symObjAddr: 0x624C, symBinAddr: 0x100006D14, symSize: 0x34 }
  - { offsetInCU: 0x1B84F, offset: 0x1B84F, size: 0x8, addend: 0x0, symName: __ZNSt3__111char_traitsIcE6lengthB8ue170006EPKc, symObjAddr: 0x6280, symBinAddr: 0x100006D48, symSize: 0x34 }
  - { offsetInCU: 0x1B872, offset: 0x1B872, size: 0x8, addend: 0x0, symName: __ZNSt3__114pointer_traitsIPN6Bfprog5TokenEE10pointer_toB8ue170006ERS2_, symObjAddr: 0x62D8, symBinAddr: 0x100006DA0, symSize: 0x14 }
  - { offsetInCU: 0x1B895, offset: 0x1B895, size: 0x8, addend: 0x0, symName: __ZNSt3__19basic_iosIcNS_11char_traitsIcEEEC2B8ue170006Ev, symObjAddr: 0x62EC, symBinAddr: 0x100006DB4, symSize: 0x44 }
  - { offsetInCU: 0x1B8BF, offset: 0x1B8BF, size: 0x8, addend: 0x0, symName: __ZNSt3__113basic_istreamIcNS_11char_traitsIcEEEC2B8ue170006EPNS_15basic_streambufIcS2_EE, symObjAddr: 0x6330, symBinAddr: 0x100006DF8, symSize: 0x64 }
  - { offsetInCU: 0x1B904, offset: 0x1B904, size: 0x8, addend: 0x0, symName: __ZNSt3__18ios_baseC2B8ue170006Ev, symObjAddr: 0x6394, symBinAddr: 0x100006E5C, symSize: 0x24 }
  - { offsetInCU: 0x1B92E, offset: 0x1B92E, size: 0x8, addend: 0x0, symName: __ZNSt3__19basic_iosIcNS_11char_traitsIcEEE4initB8ue170006EPNS_15basic_streambufIcS2_EE, symObjAddr: 0x63B8, symBinAddr: 0x100006E80, symSize: 0x44 }
  - { offsetInCU: 0x1B965, offset: 0x1B965, size: 0x8, addend: 0x0, symName: __ZNKSt3__113basic_filebufIcNS_11char_traitsIcEEE7is_openEv, symObjAddr: 0x63FC, symBinAddr: 0x100006EC4, symSize: 0x24 }
  - { offsetInCU: 0x1B98D, offset: 0x1B98D, size: 0x8, addend: 0x0, symName: __ZNSt3__14listIN6Bfprog5TokenENS_9allocatorIS2_EEE15__allocate_nodeB8ue170006ERNS3_INS_11__list_nodeIS2_PvEEEE, symObjAddr: 0x6420, symBinAddr: 0x100006EE8, symSize: 0x70 }
  - { offsetInCU: 0x1B9D7, offset: 0x1B9D7, size: 0x8, addend: 0x0, symName: __ZNSt3__116allocator_traitsINS_9allocatorINS_11__list_nodeIN6Bfprog5TokenEPvEEEEE9constructB8ue170006IS4_JS4_EvEEvRS7_PT_DpOT0_, symObjAddr: 0x6490, symBinAddr: 0x100006F58, symSize: 0x34 }
  - { offsetInCU: 0x1BA2E, offset: 0x1BA2E, size: 0x8, addend: 0x0, symName: __ZNKSt3__110unique_ptrINS_11__list_nodeIN6Bfprog5TokenEPvEENS_22__allocator_destructorINS_9allocatorIS5_EEEEEptB8ue170006Ev, symObjAddr: 0x64C4, symBinAddr: 0x100006F8C, symSize: 0x28 }
  - { offsetInCU: 0x1BA54, offset: 0x1BA54, size: 0x8, addend: 0x0, symName: __ZNSt3__14listIN6Bfprog5TokenENS_9allocatorIS2_EEE20__link_nodes_at_backEPNS_16__list_node_baseIS2_PvEES9_, symObjAddr: 0x64EC, symBinAddr: 0x100006FB4, symSize: 0x60 }
  - { offsetInCU: 0x1BA9A, offset: 0x1BA9A, size: 0x8, addend: 0x0, symName: __ZNKSt3__110unique_ptrINS_11__list_nodeIN6Bfprog5TokenEPvEENS_22__allocator_destructorINS_9allocatorIS5_EEEEE3getB8ue170006Ev, symObjAddr: 0x654C, symBinAddr: 0x100007014, symSize: 0x28 }
  - { offsetInCU: 0x1BAC0, offset: 0x1BAC0, size: 0x8, addend: 0x0, symName: __ZNSt3__111__list_nodeIN6Bfprog5TokenEPvE9__as_linkB8ue170006Ev, symObjAddr: 0x6574, symBinAddr: 0x10000703C, symSize: 0x24 }
  - { offsetInCU: 0x1BAE6, offset: 0x1BAE6, size: 0x8, addend: 0x0, symName: __ZNSt3__110unique_ptrINS_11__list_nodeIN6Bfprog5TokenEPvEENS_22__allocator_destructorINS_9allocatorIS5_EEEEE7releaseB8ue170006Ev, symObjAddr: 0x6598, symBinAddr: 0x100007060, symSize: 0x44 }
  - { offsetInCU: 0x1BB1B, offset: 0x1BB1B, size: 0x8, addend: 0x0, symName: __ZNSt3__110unique_ptrINS_11__list_nodeIN6Bfprog5TokenEPvEENS_22__allocator_destructorINS_9allocatorIS5_EEEEED1B8ue170006Ev, symObjAddr: 0x65DC, symBinAddr: 0x1000070A4, symSize: 0x2C }
  - { offsetInCU: 0x1BB45, offset: 0x1BB45, size: 0x8, addend: 0x0, symName: __ZNSt3__116allocator_traitsINS_9allocatorINS_11__list_nodeIN6Bfprog5TokenEPvEEEEE8allocateB8ue170006ERS7_m, symObjAddr: 0x6608, symBinAddr: 0x1000070D0, symSize: 0x2C }
  - { offsetInCU: 0x1BB78, offset: 0x1BB78, size: 0x8, addend: 0x0, symName: __ZNSt3__122__allocator_destructorINS_9allocatorINS_11__list_nodeIN6Bfprog5TokenEPvEEEEEC1B8ue170006ERS7_m, symObjAddr: 0x6634, symBinAddr: 0x1000070FC, symSize: 0x3C }
  - { offsetInCU: 0x1BBC4, offset: 0x1BBC4, size: 0x8, addend: 0x0, symName: __ZNSt3__110unique_ptrINS_11__list_nodeIN6Bfprog5TokenEPvEENS_22__allocator_destructorINS_9allocatorIS5_EEEEEC1B8ue170006ILb1EvEEPS5_NS_16__dependent_typeINS_27__unique_ptr_deleter_sfinaeIS9_EEXT_EE20__good_rval_ref_typeE, symObjAddr: 0x6670, symBinAddr: 0x100007138, symSize: 0x3C }
  - { offsetInCU: 0x1BC15, offset: 0x1BC15, size: 0x8, addend: 0x0, symName: __ZNSt3__19allocatorINS_11__list_nodeIN6Bfprog5TokenEPvEEE8allocateB8ue170006Em, symObjAddr: 0x66AC, symBinAddr: 0x100007174, symSize: 0x58 }
  - { offsetInCU: 0x1BC54, offset: 0x1BC54, size: 0x8, addend: 0x0, symName: __ZNSt3__116allocator_traitsINS_9allocatorINS_11__list_nodeIN6Bfprog5TokenEPvEEEEE8max_sizeB8ue170006IS7_vEEmRKS7_, symObjAddr: 0x6704, symBinAddr: 0x1000071CC, symSize: 0x24 }
  - { offsetInCU: 0x1BC82, offset: 0x1BC82, size: 0x8, addend: 0x0, symName: __ZNKSt3__19allocatorINS_11__list_nodeIN6Bfprog5TokenEPvEEE8max_sizeB8ue170006Ev, symObjAddr: 0x6728, symBinAddr: 0x1000071F0, symSize: 0x14 }
  - { offsetInCU: 0x1BCA8, offset: 0x1BCA8, size: 0x8, addend: 0x0, symName: __ZNSt3__122__allocator_destructorINS_9allocatorINS_11__list_nodeIN6Bfprog5TokenEPvEEEEEC2B8ue170006ERS7_m, symObjAddr: 0x673C, symBinAddr: 0x100007204, symSize: 0x2C }
  - { offsetInCU: 0x1BCEE, offset: 0x1BCEE, size: 0x8, addend: 0x0, symName: __ZNSt3__110unique_ptrINS_11__list_nodeIN6Bfprog5TokenEPvEENS_22__allocator_destructorINS_9allocatorIS5_EEEEEC2B8ue170006ILb1EvEEPS5_NS_16__dependent_typeINS_27__unique_ptr_deleter_sfinaeIS9_EEXT_EE20__good_rval_ref_typeE, symObjAddr: 0x6768, symBinAddr: 0x100007230, symSize: 0x48 }
  - { offsetInCU: 0x1BD3F, offset: 0x1BD3F, size: 0x8, addend: 0x0, symName: __ZNSt3__117__compressed_pairIPNS_11__list_nodeIN6Bfprog5TokenEPvEENS_22__allocator_destructorINS_9allocatorIS5_EEEEEC1B8ue170006IRS6_SA_EEOT_OT0_, symObjAddr: 0x67B0, symBinAddr: 0x100007278, symSize: 0x3C }
  - { offsetInCU: 0x1BD97, offset: 0x1BD97, size: 0x8, addend: 0x0, symName: __ZNSt3__117__compressed_pairIPNS_11__list_nodeIN6Bfprog5TokenEPvEENS_22__allocator_destructorINS_9allocatorIS5_EEEEEC2B8ue170006IRS6_SA_EEOT_OT0_, symObjAddr: 0x67EC, symBinAddr: 0x1000072B4, symSize: 0x48 }
  - { offsetInCU: 0x1BDEF, offset: 0x1BDEF, size: 0x8, addend: 0x0, symName: __ZNSt3__122__compressed_pair_elemIPNS_11__list_nodeIN6Bfprog5TokenEPvEELi0ELb0EEC2B8ue170006IRS6_vEEOT_, symObjAddr: 0x6834, symBinAddr: 0x1000072FC, symSize: 0x24 }
  - { offsetInCU: 0x1BE31, offset: 0x1BE31, size: 0x8, addend: 0x0, symName: __ZNSt3__122__compressed_pair_elemINS_22__allocator_destructorINS_9allocatorINS_11__list_nodeIN6Bfprog5TokenEPvEEEEEELi1ELb0EEC2B8ue170006IS9_vEEOT_, symObjAddr: 0x6858, symBinAddr: 0x100007320, symSize: 0x24 }
  - { offsetInCU: 0x1BE73, offset: 0x1BE73, size: 0x8, addend: 0x0, symName: __ZNSt3__19allocatorINS_11__list_nodeIN6Bfprog5TokenEPvEEE9constructB8ue170006IS3_JS3_EEEvPT_DpOT0_, symObjAddr: 0x687C, symBinAddr: 0x100007344, symSize: 0x28 }
  - { offsetInCU: 0x1BEC9, offset: 0x1BEC9, size: 0x8, addend: 0x0, symName: __ZNKSt3__117__compressed_pairIPNS_11__list_nodeIN6Bfprog5TokenEPvEENS_22__allocator_destructorINS_9allocatorIS5_EEEEE5firstB8ue170006Ev, symObjAddr: 0x68A4, symBinAddr: 0x10000736C, symSize: 0x24 }
  - { offsetInCU: 0x1BEEF, offset: 0x1BEEF, size: 0x8, addend: 0x0, symName: __ZNKSt3__122__compressed_pair_elemIPNS_11__list_nodeIN6Bfprog5TokenEPvEELi0ELb0EE5__getB8ue170006Ev, symObjAddr: 0x68C8, symBinAddr: 0x100007390, symSize: 0x14 }
  - { offsetInCU: 0x1BF15, offset: 0x1BF15, size: 0x8, addend: 0x0, symName: __ZNSt3__117__compressed_pairIPNS_11__list_nodeIN6Bfprog5TokenEPvEENS_22__allocator_destructorINS_9allocatorIS5_EEEEE5firstB8ue170006Ev, symObjAddr: 0x68DC, symBinAddr: 0x1000073A4, symSize: 0x24 }
  - { offsetInCU: 0x1BF3B, offset: 0x1BF3B, size: 0x8, addend: 0x0, symName: __ZNSt3__122__compressed_pair_elemIPNS_11__list_nodeIN6Bfprog5TokenEPvEELi0ELb0EE5__getB8ue170006Ev, symObjAddr: 0x6900, symBinAddr: 0x1000073C8, symSize: 0x14 }
  - { offsetInCU: 0x1BF61, offset: 0x1BF61, size: 0x8, addend: 0x0, symName: __ZNSt3__110unique_ptrINS_11__list_nodeIN6Bfprog5TokenEPvEENS_22__allocator_destructorINS_9allocatorIS5_EEEEED2B8ue170006Ev, symObjAddr: 0x6914, symBinAddr: 0x1000073DC, symSize: 0x30 }
  - { offsetInCU: 0x1BF8B, offset: 0x1BF8B, size: 0x8, addend: 0x0, symName: __ZNSt3__110unique_ptrINS_11__list_nodeIN6Bfprog5TokenEPvEENS_22__allocator_destructorINS_9allocatorIS5_EEEEE5resetB8ue170006EPS5_, symObjAddr: 0x6944, symBinAddr: 0x10000740C, symSize: 0x78 }
  - { offsetInCU: 0x1BFCF, offset: 0x1BFCF, size: 0x8, addend: 0x0, symName: __ZNSt3__117__compressed_pairIPNS_11__list_nodeIN6Bfprog5TokenEPvEENS_22__allocator_destructorINS_9allocatorIS5_EEEEE6secondB8ue170006Ev, symObjAddr: 0x69BC, symBinAddr: 0x100007484, symSize: 0x28 }
  - { offsetInCU: 0x1BFF5, offset: 0x1BFF5, size: 0x8, addend: 0x0, symName: __ZNSt3__122__allocator_destructorINS_9allocatorINS_11__list_nodeIN6Bfprog5TokenEPvEEEEEclB8ue170006EPS6_, symObjAddr: 0x69E4, symBinAddr: 0x1000074AC, symSize: 0x34 }
  - { offsetInCU: 0x1C029, offset: 0x1C029, size: 0x8, addend: 0x0, symName: __ZNSt3__122__compressed_pair_elemINS_22__allocator_destructorINS_9allocatorINS_11__list_nodeIN6Bfprog5TokenEPvEEEEEELi1ELb0EE5__getB8ue170006Ev, symObjAddr: 0x6A18, symBinAddr: 0x1000074E0, symSize: 0x14 }
  - { offsetInCU: 0x1C04F, offset: 0x1C04F, size: 0x8, addend: 0x0, symName: __ZNSt3__110__list_impIN6Bfprog5TokenENS_9allocatorIS2_EEE3endB8ue170006Ev, symObjAddr: 0x6A2C, symBinAddr: 0x1000074F4, symSize: 0x34 }
  - { offsetInCU: 0x1C075, offset: 0x1C075, size: 0x8, addend: 0x0, symName: __ZNSt3__115__list_iteratorIN6Bfprog5TokenEPvEC1B8ue170006EPNS_16__list_node_baseIS2_S3_EE, symObjAddr: 0x6A60, symBinAddr: 0x100007528, symSize: 0x34 }
  - { offsetInCU: 0x1C0AE, offset: 0x1C0AE, size: 0x8, addend: 0x0, symName: __ZNSt3__115__list_iteratorIN6Bfprog5TokenEPvEC2B8ue170006EPNS_16__list_node_baseIS2_S3_EE, symObjAddr: 0x6A94, symBinAddr: 0x10000755C, symSize: 0x20 }
  - { offsetInCU: 0x1C0E7, offset: 0x1C0E7, size: 0x8, addend: 0x0, symName: __ZNSt3__15dequeINS_15__list_iteratorIN6Bfprog5TokenEPvEENS_9allocatorIS5_EEE9push_backEOS5_, symObjAddr: 0x6AB4, symBinAddr: 0x10000757C, symSize: 0xAC }
  - { offsetInCU: 0x1C12D, offset: 0x1C12D, size: 0x8, addend: 0x0, symName: __ZNKSt3__15dequeINS_15__list_iteratorIN6Bfprog5TokenEPvEENS_9allocatorIS5_EEE12__back_spareB8ue170006Ev, symObjAddr: 0x6B60, symBinAddr: 0x100007628, symSize: 0x54 }
  - { offsetInCU: 0x1C153, offset: 0x1C153, size: 0x8, addend: 0x0, symName: __ZNSt3__15dequeINS_15__list_iteratorIN6Bfprog5TokenEPvEENS_9allocatorIS5_EEE19__add_back_capacityEv, symObjAddr: 0x6BB4, symBinAddr: 0x10000767C, symSize: 0x34C }
  - { offsetInCU: 0x1C208, offset: 0x1C208, size: 0x8, addend: 0x0, symName: __ZNKSt3__15dequeINS_15__list_iteratorIN6Bfprog5TokenEPvEENS_9allocatorIS5_EEE24__annotate_increase_backB8ue170006Em, symObjAddr: 0x6F00, symBinAddr: 0x1000079C8, symSize: 0x7C }
  - { offsetInCU: 0x1C243, offset: 0x1C243, size: 0x8, addend: 0x0, symName: __ZNSt3__116allocator_traitsINS_9allocatorINS_15__list_iteratorIN6Bfprog5TokenEPvEEEEE9constructB8ue170006IS6_JS6_EvEEvRS7_PT_DpOT0_, symObjAddr: 0x6F7C, symBinAddr: 0x100007A44, symSize: 0x34 }
  - { offsetInCU: 0x1C29A, offset: 0x1C29A, size: 0x8, addend: 0x0, symName: __ZNKSt3__15dequeINS_15__list_iteratorIN6Bfprog5TokenEPvEENS_9allocatorIS5_EEE10__capacityB8ue170006Ev, symObjAddr: 0x6FB0, symBinAddr: 0x100007A78, symSize: 0x60 }
  - { offsetInCU: 0x1C2C0, offset: 0x1C2C0, size: 0x8, addend: 0x0, symName: __ZNKSt3__15dequeINS_15__list_iteratorIN6Bfprog5TokenEPvEENS_9allocatorIS5_EEE13__front_spareB8ue170006Ev, symObjAddr: 0x7010, symBinAddr: 0x100007AD8, symSize: 0x18 }
  - { offsetInCU: 0x1C2E6, offset: 0x1C2E6, size: 0x8, addend: 0x0, symName: __ZNSt3__114__split_bufferIPNS_15__list_iteratorIN6Bfprog5TokenEPvEENS_9allocatorIS6_EEE9push_backB8ue170006ERKS6_, symObjAddr: 0x7028, symBinAddr: 0x100007AF0, symSize: 0x260 }
  - { offsetInCU: 0x1C35E, offset: 0x1C35E, size: 0x8, addend: 0x0, symName: __ZNKSt3__114__split_bufferIPNS_15__list_iteratorIN6Bfprog5TokenEPvEENS_9allocatorIS6_EEE12__back_spareB8ue170006Ev, symObjAddr: 0x7288, symBinAddr: 0x100007D50, symSize: 0x40 }
  - { offsetInCU: 0x1C384, offset: 0x1C384, size: 0x8, addend: 0x0, symName: __ZNSt3__114__split_bufferIPNS_15__list_iteratorIN6Bfprog5TokenEPvEENS_9allocatorIS6_EEE9push_backEOS6_, symObjAddr: 0x72C8, symBinAddr: 0x100007D90, symSize: 0x260 }
  - { offsetInCU: 0x1C3FC, offset: 0x1C3FC, size: 0x8, addend: 0x0, symName: __ZNSt3__116allocator_traitsINS_9allocatorINS_15__list_iteratorIN6Bfprog5TokenEPvEEEEE8allocateB8ue170006ERS7_m, symObjAddr: 0x7528, symBinAddr: 0x100007FF0, symSize: 0x2C }
  - { offsetInCU: 0x1C42F, offset: 0x1C42F, size: 0x8, addend: 0x0, symName: __ZNSt3__114__split_bufferIPNS_15__list_iteratorIN6Bfprog5TokenEPvEENS_9allocatorIS6_EEE10push_frontEOS6_, symObjAddr: 0x7554, symBinAddr: 0x10000801C, symSize: 0x25C }
  - { offsetInCU: 0x1C4A7, offset: 0x1C4A7, size: 0x8, addend: 0x0, symName: __ZNSt3__114__split_bufferIPNS_15__list_iteratorIN6Bfprog5TokenEPvEERNS_9allocatorIS6_EEEC1EmmS9_, symObjAddr: 0x77DC, symBinAddr: 0x1000082A4, symSize: 0x44 }
  - { offsetInCU: 0x1C502, offset: 0x1C502, size: 0x8, addend: 0x0, symName: __ZNSt3__122__allocator_destructorINS_9allocatorINS_15__list_iteratorIN6Bfprog5TokenEPvEEEEEC1B8ue170006ERS7_m, symObjAddr: 0x7820, symBinAddr: 0x1000082E8, symSize: 0x3C }
  - { offsetInCU: 0x1C5CD, offset: 0x1C5CD, size: 0x8, addend: 0x0, symName: __ZNSt3__110unique_ptrIPNS_15__list_iteratorIN6Bfprog5TokenEPvEENS_22__allocator_destructorINS_9allocatorIS5_EEEEEC1B8ue170006ILb1EvEES6_NS_16__dependent_typeINS_27__unique_ptr_deleter_sfinaeISA_EEXT_EE20__good_rval_ref_typeE, symObjAddr: 0x785C, symBinAddr: 0x100008324, symSize: 0x3C }
  - { offsetInCU: 0x1C61E, offset: 0x1C61E, size: 0x8, addend: 0x0, symName: __ZNSt3__114__split_bufferIPNS_15__list_iteratorIN6Bfprog5TokenEPvEERNS_9allocatorIS6_EEE9push_backEOS6_, symObjAddr: 0x7898, symBinAddr: 0x100008360, symSize: 0x260 }
  - { offsetInCU: 0x1C696, offset: 0x1C696, size: 0x8, addend: 0x0, symName: __ZNKSt3__110unique_ptrIPNS_15__list_iteratorIN6Bfprog5TokenEPvEENS_22__allocator_destructorINS_9allocatorIS5_EEEEE3getB8ue170006Ev, symObjAddr: 0x7AF8, symBinAddr: 0x1000085C0, symSize: 0x28 }
  - { offsetInCU: 0x1C6BC, offset: 0x1C6BC, size: 0x8, addend: 0x0, symName: __ZNSt3__110unique_ptrIPNS_15__list_iteratorIN6Bfprog5TokenEPvEENS_22__allocator_destructorINS_9allocatorIS5_EEEEE7releaseB8ue170006Ev, symObjAddr: 0x7B20, symBinAddr: 0x1000085E8, symSize: 0x44 }
  - { offsetInCU: 0x1C6F1, offset: 0x1C6F1, size: 0x8, addend: 0x0, symName: __ZNSt3__114__split_bufferIPNS_15__list_iteratorIN6Bfprog5TokenEPvEERNS_9allocatorIS6_EEE10push_frontERKS6_, symObjAddr: 0x7B64, symBinAddr: 0x10000862C, symSize: 0x25C }
  - { offsetInCU: 0x1C769, offset: 0x1C769, size: 0x8, addend: 0x0, symName: __ZNSt3__114__split_bufferIPNS_15__list_iteratorIN6Bfprog5TokenEPvEENS_9allocatorIS6_EEE9__end_capB8ue170006Ev, symObjAddr: 0x7DFC, symBinAddr: 0x1000088C4, symSize: 0x28 }
  - { offsetInCU: 0x1C78F, offset: 0x1C78F, size: 0x8, addend: 0x0, symName: __ZNSt3__114__split_bufferIPNS_15__list_iteratorIN6Bfprog5TokenEPvEERNS_9allocatorIS6_EEE9__end_capB8ue170006Ev, symObjAddr: 0x7E24, symBinAddr: 0x1000088EC, symSize: 0x28 }
  - { offsetInCU: 0x1C7B5, offset: 0x1C7B5, size: 0x8, addend: 0x0, symName: __ZNSt3__110unique_ptrIPNS_15__list_iteratorIN6Bfprog5TokenEPvEENS_22__allocator_destructorINS_9allocatorIS5_EEEEED1B8ue170006Ev, symObjAddr: 0x7E4C, symBinAddr: 0x100008914, symSize: 0x2C }
  - { offsetInCU: 0x1C7DF, offset: 0x1C7DF, size: 0x8, addend: 0x0, symName: __ZNSt3__114__split_bufferIPNS_15__list_iteratorIN6Bfprog5TokenEPvEERNS_9allocatorIS6_EEED1Ev, symObjAddr: 0x7E78, symBinAddr: 0x100008940, symSize: 0x2C }
  - { offsetInCU: 0x1C80B, offset: 0x1C80B, size: 0x8, addend: 0x0, symName: __ZNSt3__114__split_bufferIPNS_15__list_iteratorIN6Bfprog5TokenEPvEERNS_9allocatorIS6_EEE18__construct_at_endINS_13move_iteratorIPS6_EEEENS_9enable_ifIXsr31__has_forward_iterator_categoryIT_EE5valueEvE4typeESG_SG_, symObjAddr: 0x7EE4, symBinAddr: 0x1000089AC, symSize: 0x60 }
  - { offsetInCU: 0x1C858, offset: 0x1C858, size: 0x8, addend: 0x0, symName: __ZNSt3__113move_iteratorIPPNS_15__list_iteratorIN6Bfprog5TokenEPvEEEC1B8ue170006ES7_, symObjAddr: 0x7F44, symBinAddr: 0x100008A0C, symSize: 0x34 }
  - { offsetInCU: 0x1C890, offset: 0x1C890, size: 0x8, addend: 0x0, symName: __ZNSt3__116allocator_traitsINS_9allocatorIPNS_15__list_iteratorIN6Bfprog5TokenEPvEEEEE9constructB8ue170006IS7_JRKS7_EvEEvRS8_PT_DpOT0_, symObjAddr: 0x7F78, symBinAddr: 0x100008A40, symSize: 0x34 }
  - { offsetInCU: 0x1C90D, offset: 0x1C90D, size: 0x8, addend: 0x0, symName: __ZNKSt3__114__move_trivialclB8ue170006IPNS_15__list_iteratorIN6Bfprog5TokenEPvEES7_Li0EEENS_4pairIPT_PT0_EESA_SA_SC_, symObjAddr: 0x8148, symBinAddr: 0x100008C10, symSize: 0x48 }
  - { offsetInCU: 0x1C97B, offset: 0x1C97B, size: 0x8, addend: 0x0, symName: __ZNSt3__14pairIPPNS_15__list_iteratorIN6Bfprog5TokenEPvEES7_EC1B8ue170006IRS7_S7_LS4_0EEEOT_OT0_, symObjAddr: 0x8370, symBinAddr: 0x100008E38, symSize: 0x3C }
  - { offsetInCU: 0x1C9D9, offset: 0x1C9D9, size: 0x8, addend: 0x0, symName: __ZNSt3__14pairIPPNS_15__list_iteratorIN6Bfprog5TokenEPvEES7_EC2B8ue170006IRS7_S7_LS4_0EEEOT_OT0_, symObjAddr: 0x83AC, symBinAddr: 0x100008E74, symSize: 0x34 }
  - { offsetInCU: 0x1CA37, offset: 0x1CA37, size: 0x8, addend: 0x0, symName: __ZNSt3__118__unwrap_iter_implIPPNS_15__list_iteratorIN6Bfprog5TokenEPvEELb1EE8__unwrapB8ue170006ES7_, symObjAddr: 0x83E0, symBinAddr: 0x100008EA8, symSize: 0x24 }
  - { offsetInCU: 0x1CA5A, offset: 0x1CA5A, size: 0x8, addend: 0x0, symName: __ZNSt3__14pairIPPNS_15__list_iteratorIN6Bfprog5TokenEPvEES7_EC1B8ue170006IS7_S7_LS4_0EEEOT_OT0_, symObjAddr: 0x8404, symBinAddr: 0x100008ECC, symSize: 0x3C }
  - { offsetInCU: 0x1CAB8, offset: 0x1CAB8, size: 0x8, addend: 0x0, symName: __ZNSt3__14pairIPPNS_15__list_iteratorIN6Bfprog5TokenEPvEES7_EC2B8ue170006IS7_S7_LS4_0EEEOT_OT0_, symObjAddr: 0x8440, symBinAddr: 0x100008F08, symSize: 0x34 }
  - { offsetInCU: 0x1CB16, offset: 0x1CB16, size: 0x8, addend: 0x0, symName: __ZNSt3__118__unwrap_iter_implIPPNS_15__list_iteratorIN6Bfprog5TokenEPvEELb1EE8__rewrapB8ue170006ES7_S7_, symObjAddr: 0x8474, symBinAddr: 0x100008F3C, symSize: 0x50 }
  - { offsetInCU: 0x1CB47, offset: 0x1CB47, size: 0x8, addend: 0x0, symName: __ZNSt3__114__split_bufferIPNS_15__list_iteratorIN6Bfprog5TokenEPvEERNS_9allocatorIS6_EEE28__construct_at_end_with_sizeINS_13move_iteratorIPS6_EEEEvT_m, symObjAddr: 0x84C4, symBinAddr: 0x100008F8C, symSize: 0xDC }
  - { offsetInCU: 0x1CBAD, offset: 0x1CBAD, size: 0x8, addend: 0x0, symName: __ZNSt3__114__split_bufferIPNS_15__list_iteratorIN6Bfprog5TokenEPvEERNS_9allocatorIS6_EEE21_ConstructTransactionC1B8ue170006EPPS6_m, symObjAddr: 0x85DC, symBinAddr: 0x1000090A4, symSize: 0x3C }
  - { offsetInCU: 0x1CBF3, offset: 0x1CBF3, size: 0x8, addend: 0x0, symName: __ZNSt3__116allocator_traitsINS_9allocatorIPNS_15__list_iteratorIN6Bfprog5TokenEPvEEEEE9constructB8ue170006IS7_JS7_EvEEvRS8_PT_DpOT0_, symObjAddr: 0x8618, symBinAddr: 0x1000090E0, symSize: 0x34 }
  - { offsetInCU: 0x1CC4A, offset: 0x1CC4A, size: 0x8, addend: 0x0, symName: __ZNSt3__114__split_bufferIPNS_15__list_iteratorIN6Bfprog5TokenEPvEERNS_9allocatorIS6_EEE7__allocB8ue170006Ev, symObjAddr: 0x864C, symBinAddr: 0x100009114, symSize: 0x28 }
  - { offsetInCU: 0x1CC70, offset: 0x1CC70, size: 0x8, addend: 0x0, symName: __ZNKSt3__113move_iteratorIPPNS_15__list_iteratorIN6Bfprog5TokenEPvEEEdeB8ue170006Ev, symObjAddr: 0x8674, symBinAddr: 0x10000913C, symSize: 0x18 }
  - { offsetInCU: 0x1CC96, offset: 0x1CC96, size: 0x8, addend: 0x0, symName: __ZNSt3__113move_iteratorIPPNS_15__list_iteratorIN6Bfprog5TokenEPvEEEppB8ue170006Ev, symObjAddr: 0x868C, symBinAddr: 0x100009154, symSize: 0x20 }
  - { offsetInCU: 0x1CCBC, offset: 0x1CCBC, size: 0x8, addend: 0x0, symName: __ZNSt3__114__split_bufferIPNS_15__list_iteratorIN6Bfprog5TokenEPvEERNS_9allocatorIS6_EEE21_ConstructTransactionD1B8ue170006Ev, symObjAddr: 0x86AC, symBinAddr: 0x100009174, symSize: 0x2C }
  - { offsetInCU: 0x1CCE6, offset: 0x1CCE6, size: 0x8, addend: 0x0, symName: __ZNSt3__114__split_bufferIPNS_15__list_iteratorIN6Bfprog5TokenEPvEERNS_9allocatorIS6_EEE21_ConstructTransactionC2B8ue170006EPPS6_m, symObjAddr: 0x86D8, symBinAddr: 0x1000091A0, symSize: 0x44 }
  - { offsetInCU: 0x1CD2C, offset: 0x1CD2C, size: 0x8, addend: 0x0, symName: __ZNSt3__19allocatorIPNS_15__list_iteratorIN6Bfprog5TokenEPvEEE9constructB8ue170006IS6_JS6_EEEvPT_DpOT0_, symObjAddr: 0x871C, symBinAddr: 0x1000091E4, symSize: 0x28 }
  - { offsetInCU: 0x1CD82, offset: 0x1CD82, size: 0x8, addend: 0x0, symName: __ZNSt3__117__compressed_pairIPPNS_15__list_iteratorIN6Bfprog5TokenEPvEERNS_9allocatorIS6_EEE6secondB8ue170006Ev, symObjAddr: 0x8744, symBinAddr: 0x10000920C, symSize: 0x28 }
  - { offsetInCU: 0x1CDA8, offset: 0x1CDA8, size: 0x8, addend: 0x0, symName: __ZNSt3__122__compressed_pair_elemIRNS_9allocatorIPNS_15__list_iteratorIN6Bfprog5TokenEPvEEEELi1ELb0EE5__getB8ue170006Ev, symObjAddr: 0x876C, symBinAddr: 0x100009234, symSize: 0x18 }
  - { offsetInCU: 0x1CDCE, offset: 0x1CDCE, size: 0x8, addend: 0x0, symName: __ZNSt3__114__split_bufferIPNS_15__list_iteratorIN6Bfprog5TokenEPvEERNS_9allocatorIS6_EEE21_ConstructTransactionD2B8ue170006Ev, symObjAddr: 0x8784, symBinAddr: 0x10000924C, symSize: 0x20 }
  - { offsetInCU: 0x1CDF8, offset: 0x1CDF8, size: 0x8, addend: 0x0, symName: __ZNKSt3__113move_iteratorIPPNS_15__list_iteratorIN6Bfprog5TokenEPvEEE4baseB8ue170006Ev, symObjAddr: 0x881C, symBinAddr: 0x1000092E4, symSize: 0x18 }
  - { offsetInCU: 0x1CE1E, offset: 0x1CE1E, size: 0x8, addend: 0x0, symName: __ZNSt3__113move_iteratorIPPNS_15__list_iteratorIN6Bfprog5TokenEPvEEEC2B8ue170006ES7_, symObjAddr: 0x8834, symBinAddr: 0x1000092FC, symSize: 0x20 }
  - { offsetInCU: 0x1CE56, offset: 0x1CE56, size: 0x8, addend: 0x0, symName: __ZNSt3__19allocatorIPNS_15__list_iteratorIN6Bfprog5TokenEPvEEE9constructB8ue170006IS6_JRKS6_EEEvPT_DpOT0_, symObjAddr: 0x8854, symBinAddr: 0x10000931C, symSize: 0x28 }
  - { offsetInCU: 0x1CEAC, offset: 0x1CEAC, size: 0x8, addend: 0x0, symName: __ZNSt3__19allocatorINS_15__list_iteratorIN6Bfprog5TokenEPvEEE8allocateB8ue170006Em, symObjAddr: 0x887C, symBinAddr: 0x100009344, symSize: 0x58 }
  - { offsetInCU: 0x1CEEB, offset: 0x1CEEB, size: 0x8, addend: 0x0, symName: __ZNSt3__116allocator_traitsINS_9allocatorINS_15__list_iteratorIN6Bfprog5TokenEPvEEEEE8max_sizeB8ue170006IS7_vEEmRKS7_, symObjAddr: 0x88D4, symBinAddr: 0x10000939C, symSize: 0x24 }
  - { offsetInCU: 0x1CF19, offset: 0x1CF19, size: 0x8, addend: 0x0, symName: __ZNKSt3__19allocatorINS_15__list_iteratorIN6Bfprog5TokenEPvEEE8max_sizeB8ue170006Ev, symObjAddr: 0x88F8, symBinAddr: 0x1000093C0, symSize: 0x14 }
  - { offsetInCU: 0x1CF49, offset: 0x1CF49, size: 0x8, addend: 0x0, symName: __ZNKSt3__123__move_backward_trivialclB8ue170006IPNS_15__list_iteratorIN6Bfprog5TokenEPvEES7_Li0EEENS_4pairIPT_PT0_EESA_SA_SC_, symObjAddr: 0x8A88, symBinAddr: 0x100009550, symSize: 0x48 }
  - { offsetInCU: 0x1CFB1, offset: 0x1CFB1, size: 0x8, addend: 0x0, symName: __ZNSt3__14pairIPPNS_15__list_iteratorIN6Bfprog5TokenEPvEES7_EC1B8ue170006IRS7_SA_LS4_0EEEOT_OT0_, symObjAddr: 0x8B98, symBinAddr: 0x100009660, symSize: 0x3C }
  - { offsetInCU: 0x1D00F, offset: 0x1D00F, size: 0x8, addend: 0x0, symName: __ZNSt3__14pairIPPNS_15__list_iteratorIN6Bfprog5TokenEPvEES7_EC2B8ue170006IRS7_SA_LS4_0EEEOT_OT0_, symObjAddr: 0x8BD4, symBinAddr: 0x10000969C, symSize: 0x34 }
  - { offsetInCU: 0x1D06D, offset: 0x1D06D, size: 0x8, addend: 0x0, symName: __ZNSt3__114__split_bufferIPNS_15__list_iteratorIN6Bfprog5TokenEPvEERNS_9allocatorIS6_EEEC2EmmS9_, symObjAddr: 0x8C5C, symBinAddr: 0x100009724, symSize: 0xD4 }
  - { offsetInCU: 0x1D0E0, offset: 0x1D0E0, size: 0x8, addend: 0x0, symName: __ZNSt3__117__compressed_pairIPPNS_15__list_iteratorIN6Bfprog5TokenEPvEERNS_9allocatorIS6_EEEC1B8ue170006IDnSA_EEOT_OT0_, symObjAddr: 0x8D30, symBinAddr: 0x1000097F8, symSize: 0x3C }
  - { offsetInCU: 0x1D138, offset: 0x1D138, size: 0x8, addend: 0x0, symName: __ZNSt3__117__compressed_pairIPPNS_15__list_iteratorIN6Bfprog5TokenEPvEERNS_9allocatorIS6_EEEC2B8ue170006IDnSA_EEOT_OT0_, symObjAddr: 0x8DAC, symBinAddr: 0x100009874, symSize: 0x48 }
  - { offsetInCU: 0x1D190, offset: 0x1D190, size: 0x8, addend: 0x0, symName: __ZNSt3__122__compressed_pair_elemIRNS_9allocatorIPNS_15__list_iteratorIN6Bfprog5TokenEPvEEEELi1ELb0EEC2B8ue170006IS9_vEEOT_, symObjAddr: 0x8DF4, symBinAddr: 0x1000098BC, symSize: 0x20 }
  - { offsetInCU: 0x1D1D2, offset: 0x1D1D2, size: 0x8, addend: 0x0, symName: __ZNSt3__19allocatorIPNS_15__list_iteratorIN6Bfprog5TokenEPvEEE8allocateB8ue170006Em, symObjAddr: 0x8E14, symBinAddr: 0x1000098DC, symSize: 0x58 }
  - { offsetInCU: 0x1D211, offset: 0x1D211, size: 0x8, addend: 0x0, symName: __ZNSt3__116allocator_traitsINS_9allocatorIPNS_15__list_iteratorIN6Bfprog5TokenEPvEEEEE8max_sizeB8ue170006IS8_vEEmRKS8_, symObjAddr: 0x8E6C, symBinAddr: 0x100009934, symSize: 0x24 }
  - { offsetInCU: 0x1D23F, offset: 0x1D23F, size: 0x8, addend: 0x0, symName: __ZNKSt3__19allocatorIPNS_15__list_iteratorIN6Bfprog5TokenEPvEEE8max_sizeB8ue170006Ev, symObjAddr: 0x8E90, symBinAddr: 0x100009958, symSize: 0x14 }
  - { offsetInCU: 0x1D265, offset: 0x1D265, size: 0x8, addend: 0x0, symName: __ZNSt3__122__allocator_destructorINS_9allocatorINS_15__list_iteratorIN6Bfprog5TokenEPvEEEEEC2B8ue170006ERS7_m, symObjAddr: 0x8EA4, symBinAddr: 0x10000996C, symSize: 0x2C }
  - { offsetInCU: 0x1D2AB, offset: 0x1D2AB, size: 0x8, addend: 0x0, symName: __ZNSt3__110unique_ptrIPNS_15__list_iteratorIN6Bfprog5TokenEPvEENS_22__allocator_destructorINS_9allocatorIS5_EEEEEC2B8ue170006ILb1EvEES6_NS_16__dependent_typeINS_27__unique_ptr_deleter_sfinaeISA_EEXT_EE20__good_rval_ref_typeE, symObjAddr: 0x8ED0, symBinAddr: 0x100009998, symSize: 0x48 }
  - { offsetInCU: 0x1D2FC, offset: 0x1D2FC, size: 0x8, addend: 0x0, symName: __ZNSt3__117__compressed_pairIPNS_15__list_iteratorIN6Bfprog5TokenEPvEENS_22__allocator_destructorINS_9allocatorIS5_EEEEEC1B8ue170006IRS6_SA_EEOT_OT0_, symObjAddr: 0x8F18, symBinAddr: 0x1000099E0, symSize: 0x3C }
  - { offsetInCU: 0x1D354, offset: 0x1D354, size: 0x8, addend: 0x0, symName: __ZNSt3__117__compressed_pairIPNS_15__list_iteratorIN6Bfprog5TokenEPvEENS_22__allocator_destructorINS_9allocatorIS5_EEEEEC2B8ue170006IRS6_SA_EEOT_OT0_, symObjAddr: 0x8F54, symBinAddr: 0x100009A1C, symSize: 0x48 }
  - { offsetInCU: 0x1D3AC, offset: 0x1D3AC, size: 0x8, addend: 0x0, symName: __ZNSt3__122__compressed_pair_elemIPNS_15__list_iteratorIN6Bfprog5TokenEPvEELi0ELb0EEC2B8ue170006IRS6_vEEOT_, symObjAddr: 0x8F9C, symBinAddr: 0x100009A64, symSize: 0x24 }
  - { offsetInCU: 0x1D3EE, offset: 0x1D3EE, size: 0x8, addend: 0x0, symName: __ZNSt3__122__compressed_pair_elemINS_22__allocator_destructorINS_9allocatorINS_15__list_iteratorIN6Bfprog5TokenEPvEEEEEELi1ELb0EEC2B8ue170006IS9_vEEOT_, symObjAddr: 0x8FC0, symBinAddr: 0x100009A88, symSize: 0x24 }
  - { offsetInCU: 0x1D430, offset: 0x1D430, size: 0x8, addend: 0x0, symName: __ZNKSt3__117__compressed_pairIPNS_15__list_iteratorIN6Bfprog5TokenEPvEENS_22__allocator_destructorINS_9allocatorIS5_EEEEE5firstB8ue170006Ev, symObjAddr: 0x8FE4, symBinAddr: 0x100009AAC, symSize: 0x24 }
  - { offsetInCU: 0x1D456, offset: 0x1D456, size: 0x8, addend: 0x0, symName: __ZNKSt3__122__compressed_pair_elemIPNS_15__list_iteratorIN6Bfprog5TokenEPvEELi0ELb0EE5__getB8ue170006Ev, symObjAddr: 0x9008, symBinAddr: 0x100009AD0, symSize: 0x14 }
  - { offsetInCU: 0x1D47C, offset: 0x1D47C, size: 0x8, addend: 0x0, symName: __ZNSt3__117__compressed_pairIPNS_15__list_iteratorIN6Bfprog5TokenEPvEENS_22__allocator_destructorINS_9allocatorIS5_EEEEE5firstB8ue170006Ev, symObjAddr: 0x901C, symBinAddr: 0x100009AE4, symSize: 0x24 }
  - { offsetInCU: 0x1D4A2, offset: 0x1D4A2, size: 0x8, addend: 0x0, symName: __ZNSt3__122__compressed_pair_elemIPNS_15__list_iteratorIN6Bfprog5TokenEPvEELi0ELb0EE5__getB8ue170006Ev, symObjAddr: 0x9040, symBinAddr: 0x100009B08, symSize: 0x14 }
  - { offsetInCU: 0x1D4C8, offset: 0x1D4C8, size: 0x8, addend: 0x0, symName: __ZNSt3__117__compressed_pairIPPNS_15__list_iteratorIN6Bfprog5TokenEPvEENS_9allocatorIS6_EEE5firstB8ue170006Ev, symObjAddr: 0x9054, symBinAddr: 0x100009B1C, symSize: 0x24 }
  - { offsetInCU: 0x1D4EE, offset: 0x1D4EE, size: 0x8, addend: 0x0, symName: __ZNSt3__122__compressed_pair_elemIPPNS_15__list_iteratorIN6Bfprog5TokenEPvEELi0ELb0EE5__getB8ue170006Ev, symObjAddr: 0x9078, symBinAddr: 0x100009B40, symSize: 0x14 }
  - { offsetInCU: 0x1D514, offset: 0x1D514, size: 0x8, addend: 0x0, symName: __ZNSt3__117__compressed_pairIPPNS_15__list_iteratorIN6Bfprog5TokenEPvEERNS_9allocatorIS6_EEE5firstB8ue170006Ev, symObjAddr: 0x908C, symBinAddr: 0x100009B54, symSize: 0x24 }
  - { offsetInCU: 0x1D53A, offset: 0x1D53A, size: 0x8, addend: 0x0, symName: __ZNSt3__110unique_ptrIPNS_15__list_iteratorIN6Bfprog5TokenEPvEENS_22__allocator_destructorINS_9allocatorIS5_EEEEED2B8ue170006Ev, symObjAddr: 0x90B0, symBinAddr: 0x100009B78, symSize: 0x30 }
  - { offsetInCU: 0x1D564, offset: 0x1D564, size: 0x8, addend: 0x0, symName: __ZNSt3__110unique_ptrIPNS_15__list_iteratorIN6Bfprog5TokenEPvEENS_22__allocator_destructorINS_9allocatorIS5_EEEEE5resetB8ue170006ES6_, symObjAddr: 0x90E0, symBinAddr: 0x100009BA8, symSize: 0x78 }
  - { offsetInCU: 0x1D5A8, offset: 0x1D5A8, size: 0x8, addend: 0x0, symName: __ZNSt3__117__compressed_pairIPNS_15__list_iteratorIN6Bfprog5TokenEPvEENS_22__allocator_destructorINS_9allocatorIS5_EEEEE6secondB8ue170006Ev, symObjAddr: 0x9158, symBinAddr: 0x100009C20, symSize: 0x28 }
  - { offsetInCU: 0x1D5CE, offset: 0x1D5CE, size: 0x8, addend: 0x0, symName: __ZNSt3__122__allocator_destructorINS_9allocatorINS_15__list_iteratorIN6Bfprog5TokenEPvEEEEEclB8ue170006EPS6_, symObjAddr: 0x9180, symBinAddr: 0x100009C48, symSize: 0x34 }
  - { offsetInCU: 0x1D602, offset: 0x1D602, size: 0x8, addend: 0x0, symName: __ZNSt3__122__compressed_pair_elemINS_22__allocator_destructorINS_9allocatorINS_15__list_iteratorIN6Bfprog5TokenEPvEEEEEELi1ELb0EE5__getB8ue170006Ev, symObjAddr: 0x91B4, symBinAddr: 0x100009C7C, symSize: 0x14 }
  - { offsetInCU: 0x1D628, offset: 0x1D628, size: 0x8, addend: 0x0, symName: __ZNSt3__114__split_bufferIPNS_15__list_iteratorIN6Bfprog5TokenEPvEERNS_9allocatorIS6_EEED2Ev, symObjAddr: 0x91C8, symBinAddr: 0x100009C90, symSize: 0x8C }
  - { offsetInCU: 0x1D654, offset: 0x1D654, size: 0x8, addend: 0x0, symName: __ZNSt3__114__split_bufferIPNS_15__list_iteratorIN6Bfprog5TokenEPvEERNS_9allocatorIS6_EEE5clearB8ue170006Ev, symObjAddr: 0x9254, symBinAddr: 0x100009D1C, symSize: 0x28 }
  - { offsetInCU: 0x1D67A, offset: 0x1D67A, size: 0x8, addend: 0x0, symName: __ZNKSt3__114__split_bufferIPNS_15__list_iteratorIN6Bfprog5TokenEPvEERNS_9allocatorIS6_EEE8capacityB8ue170006Ev, symObjAddr: 0x927C, symBinAddr: 0x100009D44, symSize: 0x40 }
  - { offsetInCU: 0x1D6A0, offset: 0x1D6A0, size: 0x8, addend: 0x0, symName: __ZNSt3__114__split_bufferIPNS_15__list_iteratorIN6Bfprog5TokenEPvEERNS_9allocatorIS6_EEE17__destruct_at_endB8ue170006EPS6_, symObjAddr: 0x92BC, symBinAddr: 0x100009D84, symSize: 0x2C }
  - { offsetInCU: 0x1D6D4, offset: 0x1D6D4, size: 0x8, addend: 0x0, symName: __ZNSt3__114__split_bufferIPNS_15__list_iteratorIN6Bfprog5TokenEPvEERNS_9allocatorIS6_EEE17__destruct_at_endB8ue170006EPS6_NS_17integral_constantIbLb0EEE, symObjAddr: 0x92E8, symBinAddr: 0x100009DB0, symSize: 0x80 }
  - { offsetInCU: 0x1D714, offset: 0x1D714, size: 0x8, addend: 0x0, symName: __ZNKSt3__114__split_bufferIPNS_15__list_iteratorIN6Bfprog5TokenEPvEERNS_9allocatorIS6_EEE9__end_capB8ue170006Ev, symObjAddr: 0x9368, symBinAddr: 0x100009E30, symSize: 0x28 }
  - { offsetInCU: 0x1D73A, offset: 0x1D73A, size: 0x8, addend: 0x0, symName: __ZNKSt3__117__compressed_pairIPPNS_15__list_iteratorIN6Bfprog5TokenEPvEERNS_9allocatorIS6_EEE5firstB8ue170006Ev, symObjAddr: 0x9390, symBinAddr: 0x100009E58, symSize: 0x24 }
  - { offsetInCU: 0x1D760, offset: 0x1D760, size: 0x8, addend: 0x0, symName: __ZNSt3__19allocatorINS_15__list_iteratorIN6Bfprog5TokenEPvEEE9constructB8ue170006IS5_JS5_EEEvPT_DpOT0_, symObjAddr: 0x93B4, symBinAddr: 0x100009E7C, symSize: 0x28 }
  - { offsetInCU: 0x1D7B6, offset: 0x1D7B6, size: 0x8, addend: 0x0, symName: __ZNSt3__15dequeINS_15__list_iteratorIN6Bfprog5TokenEPvEENS_9allocatorIS5_EEE4backEv, symObjAddr: 0x93DC, symBinAddr: 0x100009EA4, symSize: 0x68 }
  - { offsetInCU: 0x1D7ED, offset: 0x1D7ED, size: 0x8, addend: 0x0, symName: __ZNSt3__15dequeINS_15__list_iteratorIN6Bfprog5TokenEPvEENS_9allocatorIS5_EEE8pop_backEv, symObjAddr: 0x9444, symBinAddr: 0x100009F0C, symSize: 0xE0 }
  - { offsetInCU: 0x1D851, offset: 0x1D851, size: 0x8, addend: 0x0, symName: __ZNKSt3__15dequeINS_15__list_iteratorIN6Bfprog5TokenEPvEENS_9allocatorIS5_EEE22__annotate_shrink_backB8ue170006Emm, symObjAddr: 0x9524, symBinAddr: 0x100009FEC, symSize: 0x60 }
  - { offsetInCU: 0x1D895, offset: 0x1D895, size: 0x8, addend: 0x0, symName: __ZNSt3__15dequeINS_15__list_iteratorIN6Bfprog5TokenEPvEENS_9allocatorIS5_EEE25__maybe_remove_back_spareB8ue170006Eb, symObjAddr: 0x9584, symBinAddr: 0x10000A04C, symSize: 0xE8 }
  - { offsetInCU: 0x1D8CA, offset: 0x1D8CA, size: 0x8, addend: 0x0, symName: __ZNKSt3__15dequeINS_15__list_iteratorIN6Bfprog5TokenEPvEENS_9allocatorIS5_EEE19__back_spare_blocksB8ue170006Ev, symObjAddr: 0x966C, symBinAddr: 0x10000A134, symSize: 0x2C }
  - { offsetInCU: 0x1D8F0, offset: 0x1D8F0, size: 0x8, addend: 0x0, symName: __ZNSt3__114__split_bufferIPNS_15__list_iteratorIN6Bfprog5TokenEPvEENS_9allocatorIS6_EEE4backB8ue170006Ev, symObjAddr: 0x9698, symBinAddr: 0x10000A160, symSize: 0x1C }
  - { offsetInCU: 0x1D916, offset: 0x1D916, size: 0x8, addend: 0x0, symName: __ZNSt3__114__split_bufferIPNS_15__list_iteratorIN6Bfprog5TokenEPvEENS_9allocatorIS6_EEE8pop_backB8ue170006Ev, symObjAddr: 0x96B4, symBinAddr: 0x10000A17C, symSize: 0x2C }
  - { offsetInCU: 0x1D95D, offset: 0x1D95D, size: 0x8, addend: 0x0, symName: __ZNKSt3__113basic_istreamIcNS_11char_traitsIcEEE6sentrycvbB8ue170006Ev, symObjAddr: 0x96E0, symBinAddr: 0x10000A1A8, symSize: 0x1C }
  - { offsetInCU: 0x1D983, offset: 0x1D983, size: 0x8, addend: 0x0, symName: __ZNSt3__112basic_stringIcNS_11char_traitsIcEENS_9allocatorIcEEE5clearB8ue170006Ev, symObjAddr: 0x96FC, symBinAddr: 0x10000A1C4, symSize: 0x78 }
  - { offsetInCU: 0x1D9AB, offset: 0x1D9AB, size: 0x8, addend: 0x0, symName: __ZNKSt3__112basic_stringIcNS_11char_traitsIcEENS_9allocatorIcEEE8max_sizeB8ue170006Ev, symObjAddr: 0x9774, symBinAddr: 0x10000A23C, symSize: 0xAC }
  - { offsetInCU: 0x1D9FD, offset: 0x1D9FD, size: 0x8, addend: 0x0, symName: __ZNSt3__115basic_streambufIcNS_11char_traitsIcEEE5sgetcB8ue170006Ev, symObjAddr: 0x9820, symBinAddr: 0x10000A2E8, symSize: 0x70 }
  - { offsetInCU: 0x1DA23, offset: 0x1DA23, size: 0x8, addend: 0x0, symName: __ZNSt3__111char_traitsIcE12to_char_typeB8ue170006Ei, symObjAddr: 0x9890, symBinAddr: 0x10000A358, symSize: 0x18 }
  - { offsetInCU: 0x1DA46, offset: 0x1DA46, size: 0x8, addend: 0x0, symName: __ZNKSt3__15ctypeIcE2isB8ue170006Ejc, symObjAddr: 0x98A8, symBinAddr: 0x10000A370, symSize: 0x7C }
  - { offsetInCU: 0x1DA8A, offset: 0x1DA8A, size: 0x8, addend: 0x0, symName: __ZNSt3__115basic_streambufIcNS_11char_traitsIcEEE6sbumpcB8ue170006Ev, symObjAddr: 0x9924, symBinAddr: 0x10000A3EC, symSize: 0x78 }
  - { offsetInCU: 0x1DAB0, offset: 0x1DAB0, size: 0x8, addend: 0x0, symName: __ZNSt3__18ios_base18__setstate_nothrowB8ue170006Ej, symObjAddr: 0x999C, symBinAddr: 0x10000A464, symSize: 0x64 }
  - { offsetInCU: 0x1DAE5, offset: 0x1DAE5, size: 0x8, addend: 0x0, symName: __ZNKSt3__19basic_iosIcNS_11char_traitsIcEEE10exceptionsB8ue170006Ev, symObjAddr: 0x9A00, symBinAddr: 0x10000A4C8, symSize: 0x24 }
  - { offsetInCU: 0x1DB0B, offset: 0x1DB0B, size: 0x8, addend: 0x0, symName: __ZNSt3__111char_traitsIcE6assignB8ue170006ERcRKc, symObjAddr: 0x9A24, symBinAddr: 0x10000A4EC, symSize: 0x24 }
  - { offsetInCU: 0x1DB3C, offset: 0x1DB3C, size: 0x8, addend: 0x0, symName: __ZNSt3__112basic_stringIcNS_11char_traitsIcEENS_9allocatorIcEEE15__set_long_sizeB8ue170006Em, symObjAddr: 0x9A48, symBinAddr: 0x10000A510, symSize: 0x38 }
  - { offsetInCU: 0x1DB71, offset: 0x1DB71, size: 0x8, addend: 0x0, symName: __ZNSt3__112basic_stringIcNS_11char_traitsIcEENS_9allocatorIcEEE16__set_short_sizeB8ue170006Em, symObjAddr: 0x9A80, symBinAddr: 0x10000A548, symSize: 0x78 }
  - { offsetInCU: 0x1DBB1, offset: 0x1DBB1, size: 0x8, addend: 0x0, symName: __ZNSt3__116allocator_traitsINS_9allocatorIcEEE8max_sizeB8ue170006IS2_vEEmRKS2_, symObjAddr: 0x9AF8, symBinAddr: 0x10000A5C0, symSize: 0x24 }
  - { offsetInCU: 0x1DBDF, offset: 0x1DBDF, size: 0x8, addend: 0x0, symName: __ZNKSt3__112basic_stringIcNS_11char_traitsIcEENS_9allocatorIcEEE7__allocB8ue170006Ev, symObjAddr: 0x9B1C, symBinAddr: 0x10000A5E4, symSize: 0x24 }
  - { offsetInCU: 0x1DC05, offset: 0x1DC05, size: 0x8, addend: 0x0, symName: __ZNSt3__114numeric_limitsImE3maxB8ue170006Ev, symObjAddr: 0x9B40, symBinAddr: 0x10000A608, symSize: 0x14 }
  - { offsetInCU: 0x1DC19, offset: 0x1DC19, size: 0x8, addend: 0x0, symName: __ZNKSt3__19allocatorIcE8max_sizeB8ue170006Ev, symObjAddr: 0x9B54, symBinAddr: 0x10000A61C, symSize: 0x14 }
  - { offsetInCU: 0x1DC3F, offset: 0x1DC3F, size: 0x8, addend: 0x0, symName: __ZNKSt3__117__compressed_pairINS_12basic_stringIcNS_11char_traitsIcEENS_9allocatorIcEEE5__repES5_E6secondB8ue170006Ev, symObjAddr: 0x9B68, symBinAddr: 0x10000A630, symSize: 0x24 }
  - { offsetInCU: 0x1DC65, offset: 0x1DC65, size: 0x8, addend: 0x0, symName: __ZNKSt3__122__compressed_pair_elemINS_9allocatorIcEELi1ELb1EE5__getB8ue170006Ev, symObjAddr: 0x9B8C, symBinAddr: 0x10000A654, symSize: 0x14 }
  - { offsetInCU: 0x1DC8B, offset: 0x1DC8B, size: 0x8, addend: 0x0, symName: __ZNSt3__123__libcpp_numeric_limitsImLb1EE3maxB8ue170006Ev, symObjAddr: 0x9BA0, symBinAddr: 0x10000A668, symSize: 0x8 }
  - { offsetInCU: 0x1DC9F, offset: 0x1DC9F, size: 0x8, addend: 0x0, symName: __ZNSt3__111char_traitsIcE11to_int_typeB8ue170006Ec, symObjAddr: 0x9BA8, symBinAddr: 0x10000A670, symSize: 0x14 }
  - { offsetInCU: 0x1DCC2, offset: 0x1DCC2, size: 0x8, addend: 0x0, symName: __Z7isasciii, symObjAddr: 0x9BBC, symBinAddr: 0x10000A684, symSize: 0x24 }
  - { offsetInCU: 0x1DCEF, offset: 0x1DCEF, size: 0x8, addend: 0x0, symName: __ZNKSt3__18ios_base10exceptionsB8ue170006Ev, symObjAddr: 0x9BE0, symBinAddr: 0x10000A6A8, symSize: 0x18 }
  - { offsetInCU: 0x1DD17, offset: 0x1DD17, size: 0x8, addend: 0x0, symName: __ZNSt3__110__list_impIN6Bfprog5TokenENS_9allocatorIS2_EEE5beginB8ue170006Ev, symObjAddr: 0x9BF8, symBinAddr: 0x10000A6C0, symSize: 0x30 }
  - { offsetInCU: 0x1DD3D, offset: 0x1DD3D, size: 0x8, addend: 0x0, symName: __ZNSt3__113basic_ostreamIcNS_11char_traitsIcEEEC2B8ue170006EPNS_15basic_streambufIcS2_EE, symObjAddr: 0x9C58, symBinAddr: 0x10000A720, symSize: 0x60 }
  - { offsetInCU: 0xC981, offset: 0x2A8B9, size: 0x8, addend: 0x0, symName: __ZNSt3__1eqB8ue170006IcNS_11char_traitsIcEENS_9allocatorIcEEEEbRKNS_12basic_stringIT_T0_T1_EEPKS6_, symObjAddr: 0x4EC, symBinAddr: 0x10000AC40, symSize: 0xAC }
  - { offsetInCU: 0xC9E8, offset: 0x2A920, size: 0x8, addend: 0x0, symName: __ZNSt3__112__to_addressB8ue170006IKcEEPT_S3_, symObjAddr: 0x8D4, symBinAddr: 0x10000AD98, symSize: 0x14 }
  - { offsetInCU: 0xF07B, offset: 0x2CFB3, size: 0x8, addend: 0x0, symName: _main, symObjAddr: 0x0, symBinAddr: 0x10000A780, symSize: 0x494 }
  - { offsetInCU: 0xF103, offset: 0x2D03B, size: 0x8, addend: 0x0, symName: __ZNSt3__112basic_stringIcNS_11char_traitsIcEENS_9allocatorIcEEEaSB8ue170006EPKc, symObjAddr: 0x4C0, symBinAddr: 0x10000AC14, symSize: 0x2C }
  - { offsetInCU: 0xF13C, offset: 0x2D074, size: 0x8, addend: 0x0, symName: __ZNSt3__112basic_stringIcNS_11char_traitsIcEENS_9allocatorIcEEEC1B8ue170006ILi0EEEPKc, symObjAddr: 0x664, symBinAddr: 0x10000ACEC, symSize: 0x34 }
  - { offsetInCU: 0xF17C, offset: 0x2D0B4, size: 0x8, addend: 0x0, symName: __ZNSt3__112basic_stringIcNS_11char_traitsIcEENS_9allocatorIcEEEpLB8ue170006EPKc, symObjAddr: 0x698, symBinAddr: 0x10000AD20, symSize: 0x2C }
  - { offsetInCU: 0xF1B1, offset: 0x2D0E9, size: 0x8, addend: 0x0, symName: __ZNKSt3__112basic_stringIcNS_11char_traitsIcEENS_9allocatorIcEEE5c_strB8ue170006Ev, symObjAddr: 0x6C4, symBinAddr: 0x10000AD4C, symSize: 0x24 }
  - { offsetInCU: 0xF1D7, offset: 0x2D10F, size: 0x8, addend: 0x0, symName: __ZNKSt3__112basic_stringIcNS_11char_traitsIcEENS_9allocatorIcEEE4dataB8ue170006Ev, symObjAddr: 0x8AC, symBinAddr: 0x10000AD70, symSize: 0x28 }
  - { offsetInCU: 0xF1FD, offset: 0x2D135, size: 0x8, addend: 0x0, symName: __ZNKSt3__112basic_stringIcNS_11char_traitsIcEENS_9allocatorIcEEE13__get_pointerB8ue170006Ev, symObjAddr: 0x8E8, symBinAddr: 0x10000ADAC, symSize: 0x54 }
  - { offsetInCU: 0xF223, offset: 0x2D15B, size: 0x8, addend: 0x0, symName: __ZNKSt3__112basic_stringIcNS_11char_traitsIcEENS_9allocatorIcEEE18__get_long_pointerB8ue170006Ev, symObjAddr: 0x974, symBinAddr: 0x10000AE00, symSize: 0x28 }
  - { offsetInCU: 0xF249, offset: 0x2D181, size: 0x8, addend: 0x0, symName: __ZNKSt3__112basic_stringIcNS_11char_traitsIcEENS_9allocatorIcEEE19__get_short_pointerB8ue170006Ev, symObjAddr: 0x99C, symBinAddr: 0x10000AE28, symSize: 0x28 }
  - { offsetInCU: 0xF26F, offset: 0x2D1A7, size: 0x8, addend: 0x0, symName: __ZNSt3__114pointer_traitsIPKcE10pointer_toB8ue170006ERS1_, symObjAddr: 0x9FC, symBinAddr: 0x10000AE50, symSize: 0x14 }
  - { offsetInCU: 0xF292, offset: 0x2D1CA, size: 0x8, addend: 0x0, symName: __ZNKSt3__112basic_stringIcNS_11char_traitsIcEENS_9allocatorIcEEE4sizeB8ue170006Ev, symObjAddr: 0xA44, symBinAddr: 0x10000AE64, symSize: 0x54 }
  - { offsetInCU: 0xF2B8, offset: 0x2D1F0, size: 0x8, addend: 0x0, symName: __ZNKSt3__112basic_stringIcNS_11char_traitsIcEENS_9allocatorIcEEE15__get_long_sizeB8ue170006Ev, symObjAddr: 0xABC, symBinAddr: 0x10000AEB8, symSize: 0x28 }
  - { offsetInCU: 0xF2DE, offset: 0x2D216, size: 0x8, addend: 0x0, symName: __ZNKSt3__112basic_stringIcNS_11char_traitsIcEENS_9allocatorIcEEE16__get_short_sizeB8ue170006Ev, symObjAddr: 0xAE4, symBinAddr: 0x10000AEE0, symSize: 0x34 }
  - { offsetInCU: 0xF324, offset: 0x2D25C, size: 0x8, addend: 0x0, symName: __ZNSt3__112basic_stringIcNS_11char_traitsIcEENS_9allocatorIcEEEC2B8ue170006ILi0EEEPKc, symObjAddr: 0x1438, symBinAddr: 0x10000AF14, symSize: 0x58 }
...
